Archive member included because of file (symbol)

c:/asctec_arm_sdk/winarm/bin/../lib/gcc/arm-elf/4.1.1/../../../../arm-elf/lib/thumb/interwork\libc.a(memcpy.o)
                              LL_HL_comm.o (memcpy)
c:/asctec_arm_sdk/winarm/bin/../lib/gcc/arm-elf/4.1.1/../../../../arm-elf/lib/thumb/interwork\libc.a(sprintf.o)
                              sdk_telemetry.o (sprintf)
c:/asctec_arm_sdk/winarm/bin/../lib/gcc/arm-elf/4.1.1/../../../../arm-elf/lib/thumb/interwork\libc.a(strcpy.o)
                              asctecCommIntfOnboard.o (strcpy)
c:/asctec_arm_sdk/winarm/bin/../lib/gcc/arm-elf/4.1.1/../../../../arm-elf/lib/thumb/interwork\libc.a(strlen.o)
                              asctecCommIntfOnboard.o (strlen)
c:/asctec_arm_sdk/winarm/bin/../lib/gcc/arm-elf/4.1.1/../../../../arm-elf/lib/thumb/interwork\libc.a(vfprintf.o)
                              c:/asctec_arm_sdk/winarm/bin/../lib/gcc/arm-elf/4.1.1/../../../../arm-elf/lib/thumb/interwork\libc.a(sprintf.o) (_vfprintf_r)
c:/asctec_arm_sdk/winarm/bin/../lib/gcc/arm-elf/4.1.1/../../../../arm-elf/lib/thumb/interwork\libc.a(wcrtomb.o)
                              c:/asctec_arm_sdk/winarm/bin/../lib/gcc/arm-elf/4.1.1/../../../../arm-elf/lib/thumb/interwork\libc.a(vfprintf.o) (_wcrtomb_r)
c:/asctec_arm_sdk/winarm/bin/../lib/gcc/arm-elf/4.1.1/../../../../arm-elf/lib/thumb/interwork\libc.a(wcsrtombs.o)
                              c:/asctec_arm_sdk/winarm/bin/../lib/gcc/arm-elf/4.1.1/../../../../arm-elf/lib/thumb/interwork\libc.a(vfprintf.o) (_wcsrtombs_r)
c:/asctec_arm_sdk/winarm/bin/../lib/gcc/arm-elf/4.1.1/../../../../arm-elf/lib/thumb/interwork\libc.a(wctomb_r.o)
                              c:/asctec_arm_sdk/winarm/bin/../lib/gcc/arm-elf/4.1.1/../../../../arm-elf/lib/thumb/interwork\libc.a(wcrtomb.o) (_wctomb_r)
c:/asctec_arm_sdk/winarm/bin/../lib/gcc/arm-elf/4.1.1/../../../../arm-elf/lib/thumb/interwork\libc.a(wsetup.o)
                              c:/asctec_arm_sdk/winarm/bin/../lib/gcc/arm-elf/4.1.1/../../../../arm-elf/lib/thumb/interwork\libc.a(vfprintf.o) (__swsetup)
c:/asctec_arm_sdk/winarm/bin/../lib/gcc/arm-elf/4.1.1/../../../../arm-elf/lib/thumb/interwork\libc.a(dtoa.o)
                              c:/asctec_arm_sdk/winarm/bin/../lib/gcc/arm-elf/4.1.1/../../../../arm-elf/lib/thumb/interwork\libc.a(vfprintf.o) (_dtoa_r)
c:/asctec_arm_sdk/winarm/bin/../lib/gcc/arm-elf/4.1.1/../../../../arm-elf/lib/thumb/interwork\libc.a(fflush.o)
                              c:/asctec_arm_sdk/winarm/bin/../lib/gcc/arm-elf/4.1.1/../../../../arm-elf/lib/thumb/interwork\libc.a(vfprintf.o) (fflush)
c:/asctec_arm_sdk/winarm/bin/../lib/gcc/arm-elf/4.1.1/../../../../arm-elf/lib/thumb/interwork\libc.a(findfp.o)
                              c:/asctec_arm_sdk/winarm/bin/../lib/gcc/arm-elf/4.1.1/../../../../arm-elf/lib/thumb/interwork\libc.a(vfprintf.o) (__sinit)
c:/asctec_arm_sdk/winarm/bin/../lib/gcc/arm-elf/4.1.1/../../../../arm-elf/lib/thumb/interwork\libc.a(freer.o)
                              c:/asctec_arm_sdk/winarm/bin/../lib/gcc/arm-elf/4.1.1/../../../../arm-elf/lib/thumb/interwork\libc.a(vfprintf.o) (_free_r)
c:/asctec_arm_sdk/winarm/bin/../lib/gcc/arm-elf/4.1.1/../../../../arm-elf/lib/thumb/interwork\libc.a(fvwrite.o)
                              c:/asctec_arm_sdk/winarm/bin/../lib/gcc/arm-elf/4.1.1/../../../../arm-elf/lib/thumb/interwork\libc.a(vfprintf.o) (__sfvwrite)
c:/asctec_arm_sdk/winarm/bin/../lib/gcc/arm-elf/4.1.1/../../../../arm-elf/lib/thumb/interwork\libc.a(fwalk.o)
                              c:/asctec_arm_sdk/winarm/bin/../lib/gcc/arm-elf/4.1.1/../../../../arm-elf/lib/thumb/interwork\libc.a(fflush.o) (_fwalk)
c:/asctec_arm_sdk/winarm/bin/../lib/gcc/arm-elf/4.1.1/../../../../arm-elf/lib/thumb/interwork\libc.a(impure.o)
                              c:/asctec_arm_sdk/winarm/bin/../lib/gcc/arm-elf/4.1.1/../../../../arm-elf/lib/thumb/interwork\libc.a(sprintf.o) (_impure_ptr)
c:/asctec_arm_sdk/winarm/bin/../lib/gcc/arm-elf/4.1.1/../../../../arm-elf/lib/thumb/interwork\libc.a(locale.o)
                              c:/asctec_arm_sdk/winarm/bin/../lib/gcc/arm-elf/4.1.1/../../../../arm-elf/lib/thumb/interwork\libc.a(vfprintf.o) (localeconv)
c:/asctec_arm_sdk/winarm/bin/../lib/gcc/arm-elf/4.1.1/../../../../arm-elf/lib/thumb/interwork\libc.a(makebuf.o)
                              c:/asctec_arm_sdk/winarm/bin/../lib/gcc/arm-elf/4.1.1/../../../../arm-elf/lib/thumb/interwork\libc.a(wsetup.o) (__smakebuf)
c:/asctec_arm_sdk/winarm/bin/../lib/gcc/arm-elf/4.1.1/../../../../arm-elf/lib/thumb/interwork\libc.a(mallocr.o)
                              c:/asctec_arm_sdk/winarm/bin/../lib/gcc/arm-elf/4.1.1/../../../../arm-elf/lib/thumb/interwork\libc.a(vfprintf.o) (_malloc_r)
c:/asctec_arm_sdk/winarm/bin/../lib/gcc/arm-elf/4.1.1/../../../../arm-elf/lib/thumb/interwork\libc.a(memchr.o)
                              c:/asctec_arm_sdk/winarm/bin/../lib/gcc/arm-elf/4.1.1/../../../../arm-elf/lib/thumb/interwork\libc.a(vfprintf.o) (memchr)
c:/asctec_arm_sdk/winarm/bin/../lib/gcc/arm-elf/4.1.1/../../../../arm-elf/lib/thumb/interwork\libc.a(memmove.o)
                              c:/asctec_arm_sdk/winarm/bin/../lib/gcc/arm-elf/4.1.1/../../../../arm-elf/lib/thumb/interwork\libc.a(fvwrite.o) (memmove)
c:/asctec_arm_sdk/winarm/bin/../lib/gcc/arm-elf/4.1.1/../../../../arm-elf/lib/thumb/interwork\libc.a(memset.o)
                              c:/asctec_arm_sdk/winarm/bin/../lib/gcc/arm-elf/4.1.1/../../../../arm-elf/lib/thumb/interwork\libc.a(vfprintf.o) (memset)
c:/asctec_arm_sdk/winarm/bin/../lib/gcc/arm-elf/4.1.1/../../../../arm-elf/lib/thumb/interwork\libc.a(mlock.o)
                              c:/asctec_arm_sdk/winarm/bin/../lib/gcc/arm-elf/4.1.1/../../../../arm-elf/lib/thumb/interwork\libc.a(freer.o) (__malloc_lock)
c:/asctec_arm_sdk/winarm/bin/../lib/gcc/arm-elf/4.1.1/../../../../arm-elf/lib/thumb/interwork\libc.a(mprec.o)
                              c:/asctec_arm_sdk/winarm/bin/../lib/gcc/arm-elf/4.1.1/../../../../arm-elf/lib/thumb/interwork\libc.a(dtoa.o) (_Bfree)
c:/asctec_arm_sdk/winarm/bin/../lib/gcc/arm-elf/4.1.1/../../../../arm-elf/lib/thumb/interwork\libc.a(reallocr.o)
                              c:/asctec_arm_sdk/winarm/bin/../lib/gcc/arm-elf/4.1.1/../../../../arm-elf/lib/thumb/interwork\libc.a(fvwrite.o) (_realloc_r)
c:/asctec_arm_sdk/winarm/bin/../lib/gcc/arm-elf/4.1.1/../../../../arm-elf/lib/thumb/interwork\libc.a(s_isinf.o)
                              c:/asctec_arm_sdk/winarm/bin/../lib/gcc/arm-elf/4.1.1/../../../../arm-elf/lib/thumb/interwork\libc.a(vfprintf.o) (isinf)
c:/asctec_arm_sdk/winarm/bin/../lib/gcc/arm-elf/4.1.1/../../../../arm-elf/lib/thumb/interwork\libc.a(s_isnan.o)
                              c:/asctec_arm_sdk/winarm/bin/../lib/gcc/arm-elf/4.1.1/../../../../arm-elf/lib/thumb/interwork\libc.a(vfprintf.o) (isnan)
c:/asctec_arm_sdk/winarm/bin/../lib/gcc/arm-elf/4.1.1/../../../../arm-elf/lib/thumb/interwork\libc.a(stdio.o)
                              c:/asctec_arm_sdk/winarm/bin/../lib/gcc/arm-elf/4.1.1/../../../../arm-elf/lib/thumb/interwork\libc.a(findfp.o) (__sclose)
c:/asctec_arm_sdk/winarm/bin/../lib/gcc/arm-elf/4.1.1/../../../../arm-elf/lib/thumb/interwork\libc.a(strcmp.o)
                              c:/asctec_arm_sdk/winarm/bin/../lib/gcc/arm-elf/4.1.1/../../../../arm-elf/lib/thumb/interwork\libc.a(wctomb_r.o) (strcmp)
c:/asctec_arm_sdk/winarm/bin/../lib/gcc/arm-elf/4.1.1/../../../../arm-elf/lib/thumb/interwork\libc.a(callocr.o)
                              c:/asctec_arm_sdk/winarm/bin/../lib/gcc/arm-elf/4.1.1/../../../../arm-elf/lib/thumb/interwork\libc.a(mprec.o) (_calloc_r)
c:/asctec_arm_sdk/winarm/bin/../lib/gcc/arm-elf/4.1.1/../../../../arm-elf/lib/thumb/interwork\libc.a(fclose.o)
                              c:/asctec_arm_sdk/winarm/bin/../lib/gcc/arm-elf/4.1.1/../../../../arm-elf/lib/thumb/interwork\libc.a(findfp.o) (fclose)
c:/asctec_arm_sdk/winarm/bin/../lib/gcc/arm-elf/4.1.1/thumb/interwork\libgcc.a(_udivsi3.o)
                              buzzer.o (__udivsi3)
c:/asctec_arm_sdk/winarm/bin/../lib/gcc/arm-elf/4.1.1/thumb/interwork\libgcc.a(_divsi3.o)
                              mymath.o (__divsi3)
c:/asctec_arm_sdk/winarm/bin/../lib/gcc/arm-elf/4.1.1/thumb/interwork\libgcc.a(_umodsi3.o)
                              c:/asctec_arm_sdk/winarm/bin/../lib/gcc/arm-elf/4.1.1/../../../../arm-elf/lib/thumb/interwork\libc.a(vfprintf.o) (__umodsi3)
c:/asctec_arm_sdk/winarm/bin/../lib/gcc/arm-elf/4.1.1/thumb/interwork\libgcc.a(_modsi3.o)
                              c:/asctec_arm_sdk/winarm/bin/../lib/gcc/arm-elf/4.1.1/../../../../arm-elf/lib/thumb/interwork\libc.a(vfprintf.o) (__modsi3)
c:/asctec_arm_sdk/winarm/bin/../lib/gcc/arm-elf/4.1.1/thumb/interwork\libgcc.a(_dvmd_tls.o)
                              c:/asctec_arm_sdk/winarm/bin/../lib/gcc/arm-elf/4.1.1/thumb/interwork\libgcc.a(_udivsi3.o) (__div0)
c:/asctec_arm_sdk/winarm/bin/../lib/gcc/arm-elf/4.1.1/thumb/interwork\libgcc.a(_addsubdf3.o)
                              lab.o (__subdf3)
c:/asctec_arm_sdk/winarm/bin/../lib/gcc/arm-elf/4.1.1/thumb/interwork\libgcc.a(_muldivdf3.o)
                              gpsmath.o (__muldf3)
c:/asctec_arm_sdk/winarm/bin/../lib/gcc/arm-elf/4.1.1/thumb/interwork\libgcc.a(_cmpdf2.o)
                              c:/asctec_arm_sdk/winarm/bin/../lib/gcc/arm-elf/4.1.1/../../../../arm-elf/lib/thumb/interwork\libc.a(dtoa.o) (__gtdf2)
c:/asctec_arm_sdk/winarm/bin/../lib/gcc/arm-elf/4.1.1/thumb/interwork\libgcc.a(_fixdfsi.o)
                              sdk.o (__fixdfsi)
c:/asctec_arm_sdk/winarm/bin/../lib/gcc/arm-elf/4.1.1/thumb/interwork\libgcc.a(_truncdfsf2.o)
                              sdk.o (__truncdfsf2)
c:/asctec_arm_sdk/winarm/bin/../lib/gcc/arm-elf/4.1.1/thumb/interwork\libgcc.a(_addsubsf3.o)
                              lab.o (__subsf3)
c:/asctec_arm_sdk/winarm/bin/../lib/gcc/arm-elf/4.1.1/thumb/interwork\libgcc.a(_muldivsf3.o)
                              lab.o (__mulsf3)
c:/asctec_arm_sdk/winarm/bin/../lib/gcc/arm-elf/4.1.1/thumb/interwork\libgcc.a(_cmpsf2.o)
                              lab.o (__gtsf2)
c:/asctec_arm_sdk/winarm/bin/../lib/gcc/arm-elf/4.1.1/thumb/interwork\libgcc.a(_fixunssfsi.o)
                              lab.o (__fixunssfsi)
./\libdeclination.a(declination.o)
                              LL_HL_comm.o (estimatedDeclination)
./\libublox.a(ublox.o)        main.o (gpsLEDTrigger)
c:/asctec_arm_sdk/winarm/bin/../lib/gcc/arm-elf/4.1.1/../../../../arm-elf/lib/thumb/interwork\libm.a(s_cos.o)
                              gpsmath.o (cos)
c:/asctec_arm_sdk/winarm/bin/../lib/gcc/arm-elf/4.1.1/../../../../arm-elf/lib/thumb/interwork\libm.a(s_sin.o)
                              ./\libdeclination.a(declination.o) (sin)
c:/asctec_arm_sdk/winarm/bin/../lib/gcc/arm-elf/4.1.1/../../../../arm-elf/lib/thumb/interwork\libm.a(w_atan2.o)
                              ./\libdeclination.a(declination.o) (atan2)
c:/asctec_arm_sdk/winarm/bin/../lib/gcc/arm-elf/4.1.1/../../../../arm-elf/lib/thumb/interwork\libm.a(w_pow.o)
                              Utilites.o (pow)
c:/asctec_arm_sdk/winarm/bin/../lib/gcc/arm-elf/4.1.1/../../../../arm-elf/lib/thumb/interwork\libm.a(w_sqrt.o)
                              lab.o (sqrt)
c:/asctec_arm_sdk/winarm/bin/../lib/gcc/arm-elf/4.1.1/../../../../arm-elf/lib/thumb/interwork\libm.a(wf_fmod.o)
                              Utilites.o (fmodf)
c:/asctec_arm_sdk/winarm/bin/../lib/gcc/arm-elf/4.1.1/../../../../arm-elf/lib/thumb/interwork\libm.a(wf_pow.o)
                              Utilites.o (powf)
c:/asctec_arm_sdk/winarm/bin/../lib/gcc/arm-elf/4.1.1/../../../../arm-elf/lib/thumb/interwork\libm.a(e_atan2.o)
                              c:/asctec_arm_sdk/winarm/bin/../lib/gcc/arm-elf/4.1.1/../../../../arm-elf/lib/thumb/interwork\libm.a(w_atan2.o) (__ieee754_atan2)
c:/asctec_arm_sdk/winarm/bin/../lib/gcc/arm-elf/4.1.1/../../../../arm-elf/lib/thumb/interwork\libm.a(e_pow.o)
                              c:/asctec_arm_sdk/winarm/bin/../lib/gcc/arm-elf/4.1.1/../../../../arm-elf/lib/thumb/interwork\libm.a(w_pow.o) (__ieee754_pow)
c:/asctec_arm_sdk/winarm/bin/../lib/gcc/arm-elf/4.1.1/../../../../arm-elf/lib/thumb/interwork\libm.a(e_rem_pio2.o)
                              c:/asctec_arm_sdk/winarm/bin/../lib/gcc/arm-elf/4.1.1/../../../../arm-elf/lib/thumb/interwork\libm.a(s_cos.o) (__ieee754_rem_pio2)
c:/asctec_arm_sdk/winarm/bin/../lib/gcc/arm-elf/4.1.1/../../../../arm-elf/lib/thumb/interwork\libm.a(e_sqrt.o)
                              c:/asctec_arm_sdk/winarm/bin/../lib/gcc/arm-elf/4.1.1/../../../../arm-elf/lib/thumb/interwork\libm.a(w_sqrt.o) (__ieee754_sqrt)
c:/asctec_arm_sdk/winarm/bin/../lib/gcc/arm-elf/4.1.1/../../../../arm-elf/lib/thumb/interwork\libm.a(ef_fmod.o)
                              c:/asctec_arm_sdk/winarm/bin/../lib/gcc/arm-elf/4.1.1/../../../../arm-elf/lib/thumb/interwork\libm.a(wf_fmod.o) (__ieee754_fmodf)
c:/asctec_arm_sdk/winarm/bin/../lib/gcc/arm-elf/4.1.1/../../../../arm-elf/lib/thumb/interwork\libm.a(ef_pow.o)
                              c:/asctec_arm_sdk/winarm/bin/../lib/gcc/arm-elf/4.1.1/../../../../arm-elf/lib/thumb/interwork\libm.a(wf_pow.o) (__ieee754_powf)
c:/asctec_arm_sdk/winarm/bin/../lib/gcc/arm-elf/4.1.1/../../../../arm-elf/lib/thumb/interwork\libm.a(ef_sqrt.o)
                              c:/asctec_arm_sdk/winarm/bin/../lib/gcc/arm-elf/4.1.1/../../../../arm-elf/lib/thumb/interwork\libm.a(ef_pow.o) (__ieee754_sqrtf)
c:/asctec_arm_sdk/winarm/bin/../lib/gcc/arm-elf/4.1.1/../../../../arm-elf/lib/thumb/interwork\libm.a(k_cos.o)
                              c:/asctec_arm_sdk/winarm/bin/../lib/gcc/arm-elf/4.1.1/../../../../arm-elf/lib/thumb/interwork\libm.a(s_cos.o) (__kernel_cos)
c:/asctec_arm_sdk/winarm/bin/../lib/gcc/arm-elf/4.1.1/../../../../arm-elf/lib/thumb/interwork\libm.a(k_rem_pio2.o)
                              c:/asctec_arm_sdk/winarm/bin/../lib/gcc/arm-elf/4.1.1/../../../../arm-elf/lib/thumb/interwork\libm.a(e_rem_pio2.o) (__kernel_rem_pio2)
c:/asctec_arm_sdk/winarm/bin/../lib/gcc/arm-elf/4.1.1/../../../../arm-elf/lib/thumb/interwork\libm.a(k_sin.o)
                              c:/asctec_arm_sdk/winarm/bin/../lib/gcc/arm-elf/4.1.1/../../../../arm-elf/lib/thumb/interwork\libm.a(s_cos.o) (__kernel_sin)
c:/asctec_arm_sdk/winarm/bin/../lib/gcc/arm-elf/4.1.1/../../../../arm-elf/lib/thumb/interwork\libm.a(s_atan.o)
                              c:/asctec_arm_sdk/winarm/bin/../lib/gcc/arm-elf/4.1.1/../../../../arm-elf/lib/thumb/interwork\libm.a(e_atan2.o) (atan)
c:/asctec_arm_sdk/winarm/bin/../lib/gcc/arm-elf/4.1.1/../../../../arm-elf/lib/thumb/interwork\libm.a(s_fabs.o)
                              c:/asctec_arm_sdk/winarm/bin/../lib/gcc/arm-elf/4.1.1/../../../../arm-elf/lib/thumb/interwork\libm.a(e_atan2.o) (fabs)
c:/asctec_arm_sdk/winarm/bin/../lib/gcc/arm-elf/4.1.1/../../../../arm-elf/lib/thumb/interwork\libm.a(s_finite.o)
                              c:/asctec_arm_sdk/winarm/bin/../lib/gcc/arm-elf/4.1.1/../../../../arm-elf/lib/thumb/interwork\libm.a(w_pow.o) (finite)
c:/asctec_arm_sdk/winarm/bin/../lib/gcc/arm-elf/4.1.1/../../../../arm-elf/lib/thumb/interwork\libm.a(s_floor.o)
                              c:/asctec_arm_sdk/winarm/bin/../lib/gcc/arm-elf/4.1.1/../../../../arm-elf/lib/thumb/interwork\libm.a(k_rem_pio2.o) (floor)
c:/asctec_arm_sdk/winarm/bin/../lib/gcc/arm-elf/4.1.1/../../../../arm-elf/lib/thumb/interwork\libm.a(s_lib_ver.o)
                              c:/asctec_arm_sdk/winarm/bin/../lib/gcc/arm-elf/4.1.1/../../../../arm-elf/lib/thumb/interwork\libm.a(w_atan2.o) (__fdlib_version)
c:/asctec_arm_sdk/winarm/bin/../lib/gcc/arm-elf/4.1.1/../../../../arm-elf/lib/thumb/interwork\libm.a(s_matherr.o)
                              c:/asctec_arm_sdk/winarm/bin/../lib/gcc/arm-elf/4.1.1/../../../../arm-elf/lib/thumb/interwork\libm.a(w_atan2.o) (matherr)
c:/asctec_arm_sdk/winarm/bin/../lib/gcc/arm-elf/4.1.1/../../../../arm-elf/lib/thumb/interwork\libm.a(s_rint.o)
                              c:/asctec_arm_sdk/winarm/bin/../lib/gcc/arm-elf/4.1.1/../../../../arm-elf/lib/thumb/interwork\libm.a(w_pow.o) (rint)
c:/asctec_arm_sdk/winarm/bin/../lib/gcc/arm-elf/4.1.1/../../../../arm-elf/lib/thumb/interwork\libm.a(s_scalbn.o)
                              c:/asctec_arm_sdk/winarm/bin/../lib/gcc/arm-elf/4.1.1/../../../../arm-elf/lib/thumb/interwork\libm.a(e_pow.o) (scalbn)
c:/asctec_arm_sdk/winarm/bin/../lib/gcc/arm-elf/4.1.1/../../../../arm-elf/lib/thumb/interwork\libm.a(sf_fabs.o)
                              c:/asctec_arm_sdk/winarm/bin/../lib/gcc/arm-elf/4.1.1/../../../../arm-elf/lib/thumb/interwork\libm.a(ef_pow.o) (fabsf)
c:/asctec_arm_sdk/winarm/bin/../lib/gcc/arm-elf/4.1.1/../../../../arm-elf/lib/thumb/interwork\libm.a(sf_finite.o)
                              c:/asctec_arm_sdk/winarm/bin/../lib/gcc/arm-elf/4.1.1/../../../../arm-elf/lib/thumb/interwork\libm.a(wf_pow.o) (finitef)
c:/asctec_arm_sdk/winarm/bin/../lib/gcc/arm-elf/4.1.1/../../../../arm-elf/lib/thumb/interwork\libm.a(sf_isnan.o)
                              c:/asctec_arm_sdk/winarm/bin/../lib/gcc/arm-elf/4.1.1/../../../../arm-elf/lib/thumb/interwork\libm.a(wf_fmod.o) (isnanf)
c:/asctec_arm_sdk/winarm/bin/../lib/gcc/arm-elf/4.1.1/../../../../arm-elf/lib/thumb/interwork\libm.a(sf_scalbn.o)
                              c:/asctec_arm_sdk/winarm/bin/../lib/gcc/arm-elf/4.1.1/../../../../arm-elf/lib/thumb/interwork\libm.a(ef_pow.o) (scalbnf)
c:/asctec_arm_sdk/winarm/bin/../lib/gcc/arm-elf/4.1.1/../../../../arm-elf/lib/thumb/interwork\libm.a(s_copysign.o)
                              c:/asctec_arm_sdk/winarm/bin/../lib/gcc/arm-elf/4.1.1/../../../../arm-elf/lib/thumb/interwork\libm.a(s_scalbn.o) (copysign)
c:/asctec_arm_sdk/winarm/bin/../lib/gcc/arm-elf/4.1.1/../../../../arm-elf/lib/thumb/interwork\libm.a(sf_copysign.o)
                              c:/asctec_arm_sdk/winarm/bin/../lib/gcc/arm-elf/4.1.1/../../../../arm-elf/lib/thumb/interwork\libm.a(sf_scalbn.o) (copysignf)
c:/asctec_arm_sdk/winarm/bin/../lib/gcc/arm-elf/4.1.1/thumb/interwork\libgcc.a(_fixsfsi.o)
                              ./\libdeclination.a(declination.o) (__fixsfsi)
c:/asctec_arm_sdk/winarm/bin/../lib/gcc/arm-elf/4.1.1/../../../../arm-elf/lib/thumb/interwork\libg.a(errno.o)
                              c:/asctec_arm_sdk/winarm/bin/../lib/gcc/arm-elf/4.1.1/../../../../arm-elf/lib/thumb/interwork\libm.a(w_atan2.o) (__errno)

Allocating common symbols
Common symbol       size              file

LL_1khz_attitude_data
                    0x5c              LL_HL_comm.o
aciSendSingleId     0x8c              asctecCommIntfOnboard.o
WO_CTRL_Input       0xc               sdk.o
I2CReadLength       0x4               i2c.o
GPS_Time            0x8               main.o
buildInfo           0x53              buildInfoSetup.o
I2CSlaveBuffer      0x20              i2c.o
content             0x100             lpc_aci_eeprom.o
GPS_RawBuffer       0x180             ./\libublox.a(ublox.o)
aciParPacketContentBuffer
                    0x4b0             asctecCommIntfOnboard.o
CurrentRxIndex      0x4               ssp.o
cnt_u               0x10              lab.o
WO_Direct_Motor_Control
                    0x4               sdk.o
SPIWR_num_bytes     0x4               ssp.o
aciSendSingleBufferCnt
                    0x8c              asctecCommIntfOnboard.o
urRecData           0x100             ./\libublox.a(ublox.o)
yaw_desired         0x4               lab.o
aciListPar          0x3b6             asctecCommIntfOnboard.o
pitch_desired       0x4               lab.o
aciParPacketSelect  0x180             asctecCommIntfOnboard.o
CAMERA_Commands     0xc               pelican_ptu.o
satInfo             0xc0              ./\libublox.a(ublox.o)
aciSendSingleBuffer
                    0x230             asctecCommIntfOnboard.o
CurrentTxIndex      0x4               ssp.o
aciParPacketSelectLength
                    0x3               asctecCommIntfOnboard.o
aciCmdPacketSelectLength
                    0x3               asctecCommIntfOnboard.o
WO_Direct_Individual_Motor_Control
                    0xc               sdk.o
IMU_CalcData        0x5c              main.o
aciCmdPacketContentBuffer
                    0x4b0             asctecCommIntfOnboard.o
aciVarPacketContentBuffer
                    0x690             asctecCommIntfOnboard.o
WO_SDK              0x4               sdk.o
aciCmdPacketSelect  0x180             asctecCommIntfOnboard.o
jetiDisplayText     0x20              jetiTelemetry.o
aciTxRingBuffer     0xa0              asctecCommIntfOnboard.o
aciVarPacketTypeList
                    0xc0              asctecCommIntfOnboard.o
roll_desired        0x4               lab.o
UART_rxptr          0x4               uart.o
I2C1WriteLength     0x4               i2c1.o
aciListVar          0x532             asctecCommIntfOnboard.o
aciParPacketContentBufferValid
                    0x3               asctecCommIntfOnboard.o
z                   0xc               lab.o
x_nom               0x10              lab.o
omega_cmd2          0x10              lab.o
jetiValues          0x14a             jetiTelemetry.o
I2CMode             0x4               i2c.o
aciSendSingleStatus
                    0x8c              asctecCommIntfOnboard.o
LL_1khz_control_input
                    0x38              LL_HL_comm.o
aciVarPacketPtrList
                    0x300             asctecCommIntfOnboard.o
I2CMasterBuffer     0x20              i2c.o
I2CCmd              0x4               i2c.o
urConfigCnt         0x1               ./\libublox.a(ublox.o)
aciParPacketContentBufferLength
                    0x6               asctecCommIntfOnboard.o
send_buffer         0x10              uart.o
aciCmdPacketContentBufferInvalidCnt
                    0x3               asctecCommIntfOnboard.o
aciVarPacketContentBufferLength
                    0x6               asctecCommIntfOnboard.o
urCfgIdList         0x4               ./\libublox.a(ublox.o)
iap_entry           0x4               LPC2k_ee.o
omega_cmd           0x10              lab.o
current_chksum      0x2               uart.o
RO_RC_Data          0x10              sdk.o
aciListCmd          0x3b6             asctecCommIntfOnboard.o
aciSendSingleVarType
                    0x46              asctecCommIntfOnboard.o
aciRxDataCnt        0x2               asctecCommIntfOnboard.o
packets             0x1               uart.o
aciStartTxCallback  0x4               asctecCommIntfOnboard.o
imusensor           0x44              sdk.o
I2CWriteLength      0x4               i2c.o
wpToLL              0x1c              LL_HL_comm.o
SPIWRData           0x80              ssp.o
jetiName            0xa               jetiTelemetry.o
GPS_Data            0x2c              gpsmath.o
tx_buff             0x4               uart.o
RO_ALL_Data         0x98              sdk.o
aciRxDataBuffer     0x180             asctecCommIntfOnboard.o
CAMERA_ptu          0x20              pelican_ptu.o
HL_Status           0x18              main.o
aciParPacketContentBufferInvalidCnt
                    0x3               asctecCommIntfOnboard.o
dt                  0x4               lab.o
UART1_rxptr         0x4               uart.o
gps_data_temp       0x2c              gpsmath.o
I2C1MasterBuffer    0x20              i2c1.o
aciCmdPacketContentBufferValid
                    0x3               asctecCommIntfOnboard.o
Winv                0x40              lab.o
SPIRDData           0x80              ssp.o
ADC0Value           0x20              adc.o
uart_cnt            0x4               main.o
aciReadDatafromFlashCallback
                    0x4               asctecCommIntfOnboard.o
IMU_CalcData_tmp    0x5c              main.o
u                   0x10              lab.o
ADC1Value           0x20              adc.o
adcChannelValues    0x20              adc.o
aciCmdPacketContentBufferLength
                    0x6               asctecCommIntfOnboard.o
gpsHardwareStatus   0xe               ./\libublox.a(ublox.o)
aciVarPacketSelectLength
                    0x3               asctecCommIntfOnboard.o
emergencyMode       0x1               sdk.o
cmd                 0x10              lab.o
aciVarPacketSelect  0x180             asctecCommIntfOnboard.o

Memory Configuration

Name             Origin             Length             Attributes
ROM              0x00000000         0x00080000         xr
RAM              0x40000000         0x00008000         rw
*default*        0x00000000         0xffffffff

Linker script and memory map

LOAD Common_WinARM/src/Startup.o
LOAD Common_WinARM/src/swi_handler.o
LOAD LL_HL_comm.o
LOAD mymath.o
LOAD gpsmath.o
LOAD sdk.o
LOAD sdk_telemetry.o
LOAD buzzer.o
LOAD lpc_aci_eeprom.o
LOAD asctecCommIntfOnboard.o
LOAD buildInfoSetup.o
LOAD main.o
LOAD hardware.o
LOAD system.o
LOAD uart.o
LOAD syscalls.o
LOAD i2c.o
LOAD i2c1.o
LOAD Common_WinARM/src/irq.o
LOAD adc.o
LOAD ssp.o
LOAD pelican_ptu.o
LOAD jetiTelemetry.o
LOAD LPC2k_ee.o
LOAD lab.o
LOAD Utilites.o
LOAD c:/asctec_arm_sdk/winarm/bin/../lib/gcc/arm-elf/4.1.1/../../../../arm-elf/lib/thumb/interwork\libc.a
LOAD c:/asctec_arm_sdk/winarm/bin/../lib/gcc/arm-elf/4.1.1/../../../../arm-elf/lib/thumb/interwork\libc.a
LOAD c:/asctec_arm_sdk/winarm/bin/../lib/gcc/arm-elf/4.1.1/thumb/interwork\libgcc.a
LOAD ./\libdeclination.a
LOAD ./\libublox.a
LOAD c:/asctec_arm_sdk/winarm/bin/../lib/gcc/arm-elf/4.1.1/../../../../arm-elf/lib/thumb/interwork\libm.a
START GROUP
LOAD c:/asctec_arm_sdk/winarm/bin/../lib/gcc/arm-elf/4.1.1/thumb/interwork\libgcc.a
LOAD c:/asctec_arm_sdk/winarm/bin/../lib/gcc/arm-elf/4.1.1/../../../../arm-elf/lib/thumb/interwork\libg.a
LOAD c:/asctec_arm_sdk/winarm/bin/../lib/gcc/arm-elf/4.1.1/../../../../arm-elf/lib/thumb/interwork\libc.a
END GROUP

.text           0x00000000    0x1cb30
 *(.vectorg)
 .vectorg       0x00000000       0x98 Common_WinARM/src/Startup.o
                0x00000050                __IRQ_Wrapper
 .vectorg       0x00000098       0xd0 Common_WinARM/src/swi_handler.o
                0x00000098                SoftwareInterrupt
                0x00000168                . = ALIGN (0x4)
 *(.init)
 .init          0x00000168      0x168 Common_WinARM/src/Startup.o
                0x00000294                __exit_THUMB
                0x00000168                __startup
                0x00000290                __exit_ARM
 *(.text .text.*)
 .text          0x000002d0        0x0 Common_WinARM/src/Startup.o
 .text          0x000002d0       0x38 Common_WinARM/src/swi_handler.o
                0x000002e0                IntGetCPSR
                0x00000300                FiqDisable
                0x000002d0                IntRestore
                0x000002f0                IntDisable
                0x000002d8                FiqRestore
                0x000002e8                IntEnable
                0x000002f8                FiqEnable
 .text          0x00000308     0x12fc LL_HL_comm.o
                0x00000dbc                SSP_data_distribution_HL
                0x00000308                LL_write_ctrl_data
                0x00000424                HL2LL_write_cycle
                0x0000112c                SSP_rx_handler_HL
 .text          0x00001604       0x64 mymath.o
                0x00001610                fast_sqrt
                0x00001604                fast_abs
 .text          0x00001668      0x104 gpsmath.o
                0x00001668                xy2latlon
 .text          0x0000176c      0xb24 sdk.o
                0x0000176c                SDK_Init
                0x00001944                SDK_EXAMPLE_attitude_commands
                0x00001898                SDK_EXAMPLE_direct_motor_commands_with_standard_output_mapping
                0x00002140                SDK_mainloop
                0x00001794                SDK_SetEmergencyMode
                0x000017d0                SDK_EXAMPLE_direct_individual_motor_commands
                0x00001a08                SDK_EXAMPLE_turn_motors_off
                0x00001978                SDK_EXAMPLE_turn_motors_on
                0x00001a98                SDK_EXAMPLE_gps_waypoint_control
 .text          0x00002290      0x7ec sdk_telemetry.o
                0x00002290                SDK_jetiAscTecExampleUpdateDisplay
                0x00002624                SDK_jetiAscTecExampleKeyChange
                0x000023f0                SDK_jetiAscTecExampleInit
                0x000027c0                SDK_jetiAscTecExampleRun
 .text          0x00002a7c      0x5e4 buzzer.o
                0x00002aa4                buzzer_handler
                0x00002a7c                buzzer
 .text          0x00003060      0x3a0 lpc_aci_eeprom.o
                0x0000320c                lpc_aci_ReadParafromFlash
                0x000030cc                lpc_aci_SavePara
                0x000033b4                lpc_aci_init
                0x00003060                lpc_aci_WriteParatoFlash
 .text          0x00003400     0x2b5c asctecCommIntfOnboard.o
                0x00003558                aciTxRingBufferReset
                0x000044bc                aciSyncVar
                0x00003d94                aciSendVar
                0x000039ec                aciPublishVariableInt
                0x00003694                aciPublishParameterInt
                0x0000596c                aciReceiveHandler
                0x00003ba8                aciSetSaveParaCallback
                0x00005b4c                aciSingleSend
                0x00003b98                aciSetReadParafromFlashCallback
                0x0000432c                aciSyncCmd
                0x000035d0                aciTxRingBufferGetNextByte
                0x00003cbc                aciTxSendPacket
                0x00004560                aciRxHandleMessage
                0x00003bc8                aciTxRingBufferAddData
                0x00003400                aciInit
                0x00005ddc                aciEngine
                0x00003654                aciUpdateCrc16
                0x00003840                aciPublishCommandInt
                0x00003548                aciSetStartTxCallback
                0x00003578                aciTxRingBufferGetFreeSpace
                0x00003bb8                aciSetWriteParatoFlashCallback
                0x00005cec                aciSendSingleWithAck
                0x0000419c                aciSyncPar
                0x00003628                aciCrcUpdate
                0x000035b8                aciTxRingBufferByteAvailable
 .text          0x00005f5c      0x1bc buildInfoSetup.o
                0x00005f5c                generateBuildInfo
 .text          0x00006118      0xaa8 main.o
                0x00006118                timer0ISR
                0x0000658c                mainloop
                0x00006200                main
                0x0000699c                ACISDK
 .text          0x00006bc0       0x8c hardware.o
                0x00006bc0                LED
 .text          0x00006c4c      0x58c system.o
                0x00006e28                init_timer0
                0x00006fbc                init_spi1
                0x00006ed0                PWM_Init
                0x00006d80                init_ports
                0x00006c4c                init
                0x00006f84                init_spi
                0x00006cd4                init_interrupts
                0x00007190                delay
                0x000070d8                processorClockFrequency
                0x00007098                pll_feed
                0x00007058                pll_init
                0x000070f8                peripheralClockFrequency
 .text          0x000071d8      0xeb4 uart.o
                0x000076a4                UARTWriteChar
                0x000075f8                UART1Initialize
                0x00007968                UART_send_ringbuffer
                0x000077d4                __putchar
                0x00007744                UARTReadChar
                0x0000778c                UART1ReadChar
                0x000071d8                uart1ISR
                0x00007818                UART_send
                0x00007c20                crc16
                0x00007b30                crc_update
                0x00007ea0                ringbuffer1
                0x000072a8                uart0ISR
                0x00007a38                UART_SendPacket
                0x00007cb4                ringbuffer
                0x0000754c                UARTInitialize
                0x000076f4                UART1WriteChar
                0x000079d0                UART1_send_ringbuffer
                0x000078d4                UART1_send
 .text          0x0000808c      0x2b4 syscalls.o
                0x00008234                _lseek_r
                0x00008268                _fstat_r
                0x000082a4                isatty
                0x000082cc                _sbrk_r
                0x0000808c                _read_r
                0x00008208                _close_r
                0x0000816c                _write_r
 .text          0x00008340      0x750 i2c.o
                0x000087dc                I2C0_send_motordata
                0x00008a00                I2CEngine
                0x00008340                I2C0MasterHandler
                0x00008888                I2CStart
                0x0000891c                I2CStop
                0x00008978                I2CInit
 .text          0x00008a90     0x1048 i2c1.o
                0x00008d84                fireFlyLedHandler
                0x00008a90                I2C1MasterHandler
                0x000098c0                I2C1_setRGBLed
                0x00009aac                I2C1State
                0x00009a38                I2C1Engine
                0x000099c4                I2C1Init
 .text          0x00009ad8      0x2d8 Common_WinARM/src/irq.o
                0x00009bc4                install_irq
                0x00009cb8                uninstall_irq
                0x00009b00                init_VIC
 .text          0x00009db0      0x3ec adc.o
                0x0000a0c0                ADC0getSamplingResults
                0x00009db0                ADCInit
                0x00009f74                ADC1Read
                0x00009e38                ADC0Read
                0x0000a07c                ADC0triggerSampling
 .text          0x0000a19c      0x420 ssp.o
                0x0000a3b4                LL_write
                0x0000a374                LL_write_init
                0x0000a19c                SSPHandler
 .text          0x0000a5bc      0x928 pelican_ptu.o
                0x0000a5bc                PTU_init
                0x0000aac0                SERVO_roll_move
                0x0000aba0                PTU_update_middle_positions_by_stick
                0x0000a6dc                PTU_update
                0x0000a9d8                SERVO_pitch_move
 .text          0x0000aee4     0x1090 jetiTelemetry.o
                0x0000ba28                jetiSetValueDate
                0x0000b02c                jetiSetDeviceName
                0x0000b578                jetiSetValue6B
                0x0000b290                jetiSetValue30B
                0x0000b400                jetiSetValue22B
                0x0000b16c                jetiDeactivateValue
                0x0000b860                jetiSetValueTime
                0x0000bc1c                jetiSetTextDisplay
                0x0000af88                jetiSetAlarm
                0x0000b6e8                jetiSetValue14B
                0x0000b1e8                jetiSetDecimalPoint
                0x0000af28                jetiCheckForKeyChange
                0x0000aee4                jetiSetKeyChanged
                0x0000b0e4                jetiActivateValue
                0x0000bd68                jetiInitValue
 .text          0x0000bf74      0x69c LPC2k_ee.o
                0x0000c588                enter_isp
                0x0000bf74                ee_erase
                0x0000c2d4                ee_read
                0x0000c0b0                ee_write
                0x0000c3cc                ee_count
                0x0000c364                ee_readn
                0x0000c440                ee_locate
 .text          0x0000c610      0x6ac lab.o
                0x0000c610                lab
                0x0000c630                lab2
                0x0000c76c                Command
 .text          0x0000ccbc      0xfbc Utilites.o
                0x0000cf40                matrix_scalar_mult
                0x0000d0b0                matrix_transpose
                0x0000d8d4                cofactors
                0x0000d01c                vector_scalar_mult
                0x0000d43c                determinant
                0x0000ce3c                matrix_add
                0x0000d17c                matrix_multiply
                0x0000d770                vector_copy
                0x0000db38                inverse
                0x0000d310                vector_multiply
                0x0000cd90                vector_add
                0x0000d7f0                make_identity
                0x0000ccbc                angle_diff
 .text          0x0000dc78       0x20 c:/asctec_arm_sdk/winarm/bin/../lib/gcc/arm-elf/4.1.1/../../../../arm-elf/lib/thumb/interwork\libc.a(memcpy.o)
                0x0000dc78                memcpy
 .text          0x0000dc98       0x84 c:/asctec_arm_sdk/winarm/bin/../lib/gcc/arm-elf/4.1.1/../../../../arm-elf/lib/thumb/interwork\libc.a(sprintf.o)
                0x0000dcdc                _sprintf_r
                0x0000dc98                sprintf
 .text          0x0000dd1c       0x10 c:/asctec_arm_sdk/winarm/bin/../lib/gcc/arm-elf/4.1.1/../../../../arm-elf/lib/thumb/interwork\libc.a(strcpy.o)
                0x0000dd1c                strcpy
 .text          0x0000dd2c       0x10 c:/asctec_arm_sdk/winarm/bin/../lib/gcc/arm-elf/4.1.1/../../../../arm-elf/lib/thumb/interwork\libc.a(strlen.o)
                0x0000dd2c                strlen
 .text          0x0000dd3c     0x1460 c:/asctec_arm_sdk/winarm/bin/../lib/gcc/arm-elf/4.1.1/../../../../arm-elf/lib/thumb/interwork\libc.a(vfprintf.o)
                0x0000dd5c                _vfprintf_r
                0x0000f17c                vfprintf
 .text          0x0000f19c       0x50 c:/asctec_arm_sdk/winarm/bin/../lib/gcc/arm-elf/4.1.1/../../../../arm-elf/lib/thumb/interwork\libc.a(wcrtomb.o)
                0x0000f19c                _wcrtomb_r
                0x0000f1cc                wcrtomb
 .text          0x0000f1ec       0xd8 c:/asctec_arm_sdk/winarm/bin/../lib/gcc/arm-elf/4.1.1/../../../../arm-elf/lib/thumb/interwork\libc.a(wcsrtombs.o)
                0x0000f1ec                _wcsrtombs_r
                0x0000f29c                wcsrtombs
 .text          0x0000f2c4      0x2b0 c:/asctec_arm_sdk/winarm/bin/../lib/gcc/arm-elf/4.1.1/../../../../arm-elf/lib/thumb/interwork\libc.a(wctomb_r.o)
                0x0000f2c4                _wctomb_r
 .text          0x0000f574       0x94 c:/asctec_arm_sdk/winarm/bin/../lib/gcc/arm-elf/4.1.1/../../../../arm-elf/lib/thumb/interwork\libc.a(wsetup.o)
                0x0000f574                __swsetup
 .text          0x0000f608      0xd30 c:/asctec_arm_sdk/winarm/bin/../lib/gcc/arm-elf/4.1.1/../../../../arm-elf/lib/thumb/interwork\libc.a(dtoa.o)
                0x0000f73c                _dtoa_r
 .text          0x00010338       0x88 c:/asctec_arm_sdk/winarm/bin/../lib/gcc/arm-elf/4.1.1/../../../../arm-elf/lib/thumb/interwork\libc.a(fflush.o)
                0x00010338                fflush
 .text          0x000103c0      0x1b0 c:/asctec_arm_sdk/winarm/bin/../lib/gcc/arm-elf/4.1.1/../../../../arm-elf/lib/thumb/interwork\libc.a(findfp.o)
                0x000103f8                __sinit
                0x00010490                __sfmoreglue
                0x0001047c                _cleanup
                0x0001046c                _cleanup_r
                0x000104e0                __fp_lock_all
                0x00010454                __sfp_lock_acquire
                0x000104f8                __sfp
                0x00010460                __sinit_lock_release
                0x000104c8                __fp_unlock_all
                0x00010458                __sfp_lock_release
                0x0001045c                __sinit_lock_acquire
 .text          0x00010570      0x248 c:/asctec_arm_sdk/winarm/bin/../lib/gcc/arm-elf/4.1.1/../../../../arm-elf/lib/thumb/interwork\libc.a(freer.o)
                0x00010610                _free_r
                0x00010570                _malloc_trim_r
 .text          0x000107b8      0x25c c:/asctec_arm_sdk/winarm/bin/../lib/gcc/arm-elf/4.1.1/../../../../arm-elf/lib/thumb/interwork\libc.a(fvwrite.o)
                0x000107b8                __sfvwrite
 .text          0x00010a14       0xb4 c:/asctec_arm_sdk/winarm/bin/../lib/gcc/arm-elf/4.1.1/../../../../arm-elf/lib/thumb/interwork\libc.a(fwalk.o)
                0x00010a70                _fwalk
                0x00010a14                _fwalk_reent
 .text          0x00010ac8        0x0 c:/asctec_arm_sdk/winarm/bin/../lib/gcc/arm-elf/4.1.1/../../../../arm-elf/lib/thumb/interwork\libc.a(impure.o)
 .text          0x00010ac8       0x78 c:/asctec_arm_sdk/winarm/bin/../lib/gcc/arm-elf/4.1.1/../../../../arm-elf/lib/thumb/interwork\libc.a(locale.o)
                0x00010adc                _setlocale_r
                0x00010ac8                __locale_charset
                0x00010ad4                _localeconv_r
                0x00010b1c                setlocale
                0x00010b38                localeconv
 .text          0x00010b40       0xd8 c:/asctec_arm_sdk/winarm/bin/../lib/gcc/arm-elf/4.1.1/../../../../arm-elf/lib/thumb/interwork\libc.a(makebuf.o)
                0x00010b40                __smakebuf
 .text          0x00010c18      0x4ac c:/asctec_arm_sdk/winarm/bin/../lib/gcc/arm-elf/4.1.1/../../../../arm-elf/lib/thumb/interwork\libc.a(mallocr.o)
                0x00010c18                _malloc_r
 .text          0x000110c4       0x18 c:/asctec_arm_sdk/winarm/bin/../lib/gcc/arm-elf/4.1.1/../../../../arm-elf/lib/thumb/interwork\libc.a(memchr.o)
                0x000110c4                memchr
 .text          0x000110dc       0x38 c:/asctec_arm_sdk/winarm/bin/../lib/gcc/arm-elf/4.1.1/../../../../arm-elf/lib/thumb/interwork\libc.a(memmove.o)
                0x000110dc                memmove
 .text          0x00011114       0x10 c:/asctec_arm_sdk/winarm/bin/../lib/gcc/arm-elf/4.1.1/../../../../arm-elf/lib/thumb/interwork\libc.a(memset.o)
                0x00011114                memset
 .text          0x00011124        0x8 c:/asctec_arm_sdk/winarm/bin/../lib/gcc/arm-elf/4.1.1/../../../../arm-elf/lib/thumb/interwork\libc.a(mlock.o)
                0x00011128                __malloc_unlock
                0x00011124                __malloc_lock
 .text          0x0001112c      0x834 c:/asctec_arm_sdk/winarm/bin/../lib/gcc/arm-elf/4.1.1/../../../../arm-elf/lib/thumb/interwork\libc.a(mprec.o)
                0x0001139c                _mprec_log10
                0x00011144                _hi0bits
                0x000113e0                _Balloc
                0x0001143c                _d2b
                0x00011680                _multiply
                0x00011348                _ratio
                0x000118dc                _s2b
                0x000117ac                _i2b
                0x0001118c                _lo0bits
                0x000111f8                __mcmp
                0x00011850                _pow5mult
                0x00011238                _ulp
                0x00011288                _b2d
                0x000117c4                _multadd
                0x00011510                __mdiff
                0x000115f0                _lshift
                0x0001112c                _Bfree
 .text          0x00011960      0x308 c:/asctec_arm_sdk/winarm/bin/../lib/gcc/arm-elf/4.1.1/../../../../arm-elf/lib/thumb/interwork\libc.a(reallocr.o)
                0x00011960                _realloc_r
 .text          0x00011c68       0x2c c:/asctec_arm_sdk/winarm/bin/../lib/gcc/arm-elf/4.1.1/../../../../arm-elf/lib/thumb/interwork\libc.a(s_isinf.o)
                0x00011c68                isinf
 .text          0x00011c94       0x24 c:/asctec_arm_sdk/winarm/bin/../lib/gcc/arm-elf/4.1.1/../../../../arm-elf/lib/thumb/interwork\libc.a(s_isnan.o)
                0x00011c94                isnan
 .text          0x00011cb8       0xd0 c:/asctec_arm_sdk/winarm/bin/../lib/gcc/arm-elf/4.1.1/../../../../arm-elf/lib/thumb/interwork\libc.a(stdio.o)
                0x00011cd0                __sseek
                0x00011d50                __sread
                0x00011cb8                __sclose
                0x00011d0c                __swrite
 .text          0x00011d88       0x18 c:/asctec_arm_sdk/winarm/bin/../lib/gcc/arm-elf/4.1.1/../../../../arm-elf/lib/thumb/interwork\libc.a(strcmp.o)
                0x00011d88                strcmp
 .text          0x00011da0       0x5c c:/asctec_arm_sdk/winarm/bin/../lib/gcc/arm-elf/4.1.1/../../../../arm-elf/lib/thumb/interwork\libc.a(callocr.o)
                0x00011da0                _calloc_r
 .text          0x00011dfc       0xb8 c:/asctec_arm_sdk/winarm/bin/../lib/gcc/arm-elf/4.1.1/../../../../arm-elf/lib/thumb/interwork\libc.a(fclose.o)
                0x00011dfc                _fclose_r
                0x00011e9c                fclose
 .text          0x00011eb4       0x8c c:/asctec_arm_sdk/winarm/bin/../lib/gcc/arm-elf/4.1.1/thumb/interwork\libgcc.a(_udivsi3.o)
                0x00011eb4                __udivsi3
                0x00011eb4                __aeabi_uidiv
                0x00011f30                __aeabi_uidivmod
 .text          0x00011f40       0xa4 c:/asctec_arm_sdk/winarm/bin/../lib/gcc/arm-elf/4.1.1/thumb/interwork\libgcc.a(_divsi3.o)
                0x00011f40                __aeabi_idiv
                0x00011f40                __divsi3
                0x00011fd4                __aeabi_idivmod
 .text          0x00011fe4       0xc8 c:/asctec_arm_sdk/winarm/bin/../lib/gcc/arm-elf/4.1.1/thumb/interwork\libgcc.a(_umodsi3.o)
                0x00011fe4                __umodsi3
 .text          0x000120ac       0xd8 c:/asctec_arm_sdk/winarm/bin/../lib/gcc/arm-elf/4.1.1/thumb/interwork\libgcc.a(_modsi3.o)
                0x000120ac                __modsi3
 .text          0x00012184        0x4 c:/asctec_arm_sdk/winarm/bin/../lib/gcc/arm-elf/4.1.1/thumb/interwork\libgcc.a(_dvmd_tls.o)
                0x00012184                __aeabi_ldiv0
                0x00012184                __div0
                0x00012184                __aeabi_idiv0
 .text          0x00012188      0x430 c:/asctec_arm_sdk/winarm/bin/../lib/gcc/arm-elf/4.1.1/thumb/interwork\libgcc.a(_addsubdf3.o)
                0x0001254c                __floatdidf
                0x000124cc                __floatsidf
                0x000124a4                __aeabi_ui2d
                0x00012188                __aeabi_drsub
                0x000124f8                __extendsfdf2
                0x00012194                __adddf3
                0x000124a4                __floatunsidf
                0x00012194                __aeabi_dadd
                0x00012538                __aeabi_ul2d
                0x00012190                __aeabi_dsub
                0x00012538                __floatundidf
                0x000124cc                __aeabi_i2d
                0x0001254c                __aeabi_l2d
                0x000124f8                __aeabi_f2d
                0x00012190                __subdf3
 .text          0x000125b8      0x49c c:/asctec_arm_sdk/winarm/bin/../lib/gcc/arm-elf/4.1.1/thumb/interwork\libgcc.a(_muldivdf3.o)
                0x00012848                __aeabi_ddiv
                0x000125b8                __aeabi_dmul
                0x00012848                __divdf3
                0x000125b8                __muldf3
 .text          0x00012a54      0x140 c:/asctec_arm_sdk/winarm/bin/../lib/gcc/arm-elf/4.1.1/thumb/interwork\libgcc.a(_cmpdf2.o)
                0x00012b4c                __aeabi_dcmple
                0x00012a64                __cmpdf2
                0x00012a64                __eqdf2
                0x00012a54                __gtdf2
                0x00012b04                __aeabi_cdcmple
                0x00012ae8                __aeabi_cdrcmple
                0x00012a5c                __ltdf2
                0x00012b34                __aeabi_dcmplt
                0x00012a5c                __ledf2
                0x00012b7c                __aeabi_dcmpgt
                0x00012b64                __aeabi_dcmpge
                0x00012a64                __nedf2
                0x00012b1c                __aeabi_dcmpeq
                0x00012b04                __aeabi_cdcmpeq
                0x00012a54                __gedf2
 .text          0x00012b94       0x5c c:/asctec_arm_sdk/winarm/bin/../lib/gcc/arm-elf/4.1.1/thumb/interwork\libgcc.a(_fixdfsi.o)
                0x00012b94                __fixdfsi
                0x00012b94                __aeabi_d2iz
 .text          0x00012bf0       0xa0 c:/asctec_arm_sdk/winarm/bin/../lib/gcc/arm-elf/4.1.1/thumb/interwork\libgcc.a(_truncdfsf2.o)
                0x00012bf0                __aeabi_d2f
                0x00012bf0                __truncdfsf2
 .text          0x00012c90      0x2ac c:/asctec_arm_sdk/winarm/bin/../lib/gcc/arm-elf/4.1.1/thumb/interwork\libgcc.a(_addsubsf3.o)
                0x00012c9c                __aeabi_fadd
                0x00012c98                __subsf3
                0x00012e60                __aeabi_i2f
                0x00012c98                __aeabi_fsub
                0x00012e90                __floatdisf
                0x00012e60                __floatsisf
                0x00012e80                __floatundisf
                0x00012e58                __aeabi_ui2f
                0x00012e90                __aeabi_l2f
                0x00012e80                __aeabi_ul2f
                0x00012c90                __aeabi_frsub
                0x00012e58                __floatunsisf
                0x00012c9c                __addsf3
 .text          0x00012f3c      0x2f8 c:/asctec_arm_sdk/winarm/bin/../lib/gcc/arm-elf/4.1.1/thumb/interwork\libgcc.a(_muldivsf3.o)
                0x000130d4                __divsf3
                0x000130d4                __aeabi_fdiv
                0x00012f3c                __mulsf3
                0x00012f3c                __aeabi_fmul
 .text          0x00013234      0x110 c:/asctec_arm_sdk/winarm/bin/../lib/gcc/arm-elf/4.1.1/thumb/interwork\libgcc.a(_cmpsf2.o)
                0x0001332c                __aeabi_fcmpgt
                0x0001323c                __lesf2
                0x00013244                __nesf2
                0x00013314                __aeabi_fcmpge
                0x00013234                __gtsf2
                0x000132fc                __aeabi_fcmple
                0x00013244                __eqsf2
                0x00013244                __cmpsf2
                0x0001323c                __ltsf2
                0x000132b4                __aeabi_cfcmple
                0x00013234                __gesf2
                0x000132cc                __aeabi_fcmpeq
                0x000132a4                __aeabi_cfrcmple
                0x000132e4                __aeabi_fcmplt
                0x000132b4                __aeabi_cfcmpeq
 .text          0x00013344       0x54 c:/asctec_arm_sdk/winarm/bin/../lib/gcc/arm-elf/4.1.1/thumb/interwork\libgcc.a(_fixunssfsi.o)
                0x00013344                __aeabi_f2uiz
                0x00013344                __fixunssfsi
 .text          0x00013398     0x3250 ./\libdeclination.a(declination.o)
                0x00015e44                geomg1
                0x00015eb4                getDeclination
                0x00015ddc                geomag
 .text          0x000165e8     0x1e88 ./\libublox.a(ublox.o)
                0x00017110                uBloxReceiveHandler
                0x00016800                pollMessageRate
                0x000177d4                uBloxReceiveEngine
                0x00016958                uBloxHandleMessage
                0x000168bc                uBloxResetConfiguration
                0x00016858                setMessageRate
                0x000165e8                uBloxSendMessage
 .text          0x00018470       0xa8 c:/asctec_arm_sdk/winarm/bin/../lib/gcc/arm-elf/4.1.1/../../../../arm-elf/lib/thumb/interwork\libm.a(s_cos.o)
                0x00018470                cos
 .text          0x00018518       0xac c:/asctec_arm_sdk/winarm/bin/../lib/gcc/arm-elf/4.1.1/../../../../arm-elf/lib/thumb/interwork\libm.a(s_sin.o)
                0x00018518                sin
 .text          0x000185c4       0xc0 c:/asctec_arm_sdk/winarm/bin/../lib/gcc/arm-elf/4.1.1/../../../../arm-elf/lib/thumb/interwork\libm.a(w_atan2.o)
                0x000185c4                atan2
 .text          0x00018684      0x33c c:/asctec_arm_sdk/winarm/bin/../lib/gcc/arm-elf/4.1.1/../../../../arm-elf/lib/thumb/interwork\libm.a(w_pow.o)
                0x00018684                pow
 .text          0x000189c0       0xb8 c:/asctec_arm_sdk/winarm/bin/../lib/gcc/arm-elf/4.1.1/../../../../arm-elf/lib/thumb/interwork\libm.a(w_sqrt.o)
                0x000189c0                sqrt
 .text          0x00018a78       0xc0 c:/asctec_arm_sdk/winarm/bin/../lib/gcc/arm-elf/4.1.1/../../../../arm-elf/lib/thumb/interwork\libm.a(wf_fmod.o)
                0x00018a78                fmodf
 .text          0x00018b38      0x2dc c:/asctec_arm_sdk/winarm/bin/../lib/gcc/arm-elf/4.1.1/../../../../arm-elf/lib/thumb/interwork\libm.a(wf_pow.o)
                0x00018b38                powf
 .text          0x00018e14      0x20c c:/asctec_arm_sdk/winarm/bin/../lib/gcc/arm-elf/4.1.1/../../../../arm-elf/lib/thumb/interwork\libm.a(e_atan2.o)
                0x00018e14                __ieee754_atan2
 .text          0x00019020      0xb0c c:/asctec_arm_sdk/winarm/bin/../lib/gcc/arm-elf/4.1.1/../../../../arm-elf/lib/thumb/interwork\libm.a(e_pow.o)
                0x00019020                __ieee754_pow
 .text          0x00019b2c      0x420 c:/asctec_arm_sdk/winarm/bin/../lib/gcc/arm-elf/4.1.1/../../../../arm-elf/lib/thumb/interwork\libm.a(e_rem_pio2.o)
                0x00019b2c                __ieee754_rem_pio2
 .text          0x00019f4c      0x1a0 c:/asctec_arm_sdk/winarm/bin/../lib/gcc/arm-elf/4.1.1/../../../../arm-elf/lib/thumb/interwork\libm.a(e_sqrt.o)
                0x00019f4c                __ieee754_sqrt
 .text          0x0001a0ec      0x128 c:/asctec_arm_sdk/winarm/bin/../lib/gcc/arm-elf/4.1.1/../../../../arm-elf/lib/thumb/interwork\libm.a(ef_fmod.o)
                0x0001a0ec                __ieee754_fmodf
 .text          0x0001a214      0x720 c:/asctec_arm_sdk/winarm/bin/../lib/gcc/arm-elf/4.1.1/../../../../arm-elf/lib/thumb/interwork\libm.a(ef_pow.o)
                0x0001a214                __ieee754_powf
 .text          0x0001a934       0xb4 c:/asctec_arm_sdk/winarm/bin/../lib/gcc/arm-elf/4.1.1/../../../../arm-elf/lib/thumb/interwork\libm.a(ef_sqrt.o)
                0x0001a934                __ieee754_sqrtf
 .text          0x0001a9e8      0x264 c:/asctec_arm_sdk/winarm/bin/../lib/gcc/arm-elf/4.1.1/../../../../arm-elf/lib/thumb/interwork\libm.a(k_cos.o)
                0x0001a9e8                __kernel_cos
 .text          0x0001ac4c      0x744 c:/asctec_arm_sdk/winarm/bin/../lib/gcc/arm-elf/4.1.1/../../../../arm-elf/lib/thumb/interwork\libm.a(k_rem_pio2.o)
                0x0001ac4c                __kernel_rem_pio2
 .text          0x0001b390      0x178 c:/asctec_arm_sdk/winarm/bin/../lib/gcc/arm-elf/4.1.1/../../../../arm-elf/lib/thumb/interwork\libm.a(k_sin.o)
                0x0001b390                __kernel_sin
 .text          0x0001b508      0x35c c:/asctec_arm_sdk/winarm/bin/../lib/gcc/arm-elf/4.1.1/../../../../arm-elf/lib/thumb/interwork\libm.a(s_atan.o)
                0x0001b508                atan
 .text          0x0001b864       0x18 c:/asctec_arm_sdk/winarm/bin/../lib/gcc/arm-elf/4.1.1/../../../../arm-elf/lib/thumb/interwork\libm.a(s_fabs.o)
                0x0001b864                fabs
 .text          0x0001b87c       0x1c c:/asctec_arm_sdk/winarm/bin/../lib/gcc/arm-elf/4.1.1/../../../../arm-elf/lib/thumb/interwork\libm.a(s_finite.o)
                0x0001b87c                finite
 .text          0x0001b898      0x12c c:/asctec_arm_sdk/winarm/bin/../lib/gcc/arm-elf/4.1.1/../../../../arm-elf/lib/thumb/interwork\libm.a(s_floor.o)
                0x0001b898                floor
 .text          0x0001b9c4        0x0 c:/asctec_arm_sdk/winarm/bin/../lib/gcc/arm-elf/4.1.1/../../../../arm-elf/lib/thumb/interwork\libm.a(s_lib_ver.o)
 .text          0x0001b9c4        0x4 c:/asctec_arm_sdk/winarm/bin/../lib/gcc/arm-elf/4.1.1/../../../../arm-elf/lib/thumb/interwork\libm.a(s_matherr.o)
                0x0001b9c4                matherr
 .text          0x0001b9c8      0x14c c:/asctec_arm_sdk/winarm/bin/../lib/gcc/arm-elf/4.1.1/../../../../arm-elf/lib/thumb/interwork\libm.a(s_rint.o)
                0x0001b9c8                rint
 .text          0x0001bb14      0x110 c:/asctec_arm_sdk/winarm/bin/../lib/gcc/arm-elf/4.1.1/../../../../arm-elf/lib/thumb/interwork\libm.a(s_scalbn.o)
                0x0001bb14                scalbn
 .text          0x0001bc24        0xc c:/asctec_arm_sdk/winarm/bin/../lib/gcc/arm-elf/4.1.1/../../../../arm-elf/lib/thumb/interwork\libm.a(sf_fabs.o)
                0x0001bc24                fabsf
 .text          0x0001bc30       0x1c c:/asctec_arm_sdk/winarm/bin/../lib/gcc/arm-elf/4.1.1/../../../../arm-elf/lib/thumb/interwork\libm.a(sf_finite.o)
                0x0001bc30                finitef
 .text          0x0001bc4c       0x18 c:/asctec_arm_sdk/winarm/bin/../lib/gcc/arm-elf/4.1.1/../../../../arm-elf/lib/thumb/interwork\libm.a(sf_isnan.o)
                0x0001bc4c                isnanf
 .text          0x0001bc64       0xc0 c:/asctec_arm_sdk/winarm/bin/../lib/gcc/arm-elf/4.1.1/../../../../arm-elf/lib/thumb/interwork\libm.a(sf_scalbn.o)
                0x0001bc64                scalbnf
 .text          0x0001bd24       0x24 c:/asctec_arm_sdk/winarm/bin/../lib/gcc/arm-elf/4.1.1/../../../../arm-elf/lib/thumb/interwork\libm.a(s_copysign.o)
                0x0001bd24                copysign
 .text          0x0001bd48       0x14 c:/asctec_arm_sdk/winarm/bin/../lib/gcc/arm-elf/4.1.1/../../../../arm-elf/lib/thumb/interwork\libm.a(sf_copysign.o)
                0x0001bd48                copysignf
 .text          0x0001bd5c       0x5c c:/asctec_arm_sdk/winarm/bin/../lib/gcc/arm-elf/4.1.1/thumb/interwork\libgcc.a(_fixsfsi.o)
                0x0001bd5c                __fixsfsi
                0x0001bd5c                __aeabi_f2iz
 .text          0x0001bdb8        0xc c:/asctec_arm_sdk/winarm/bin/../lib/gcc/arm-elf/4.1.1/../../../../arm-elf/lib/thumb/interwork\libg.a(errno.o)
                0x0001bdb8                __errno
 *(.gnu.linkonce.t.*)
 *(.glue_7)
 .glue_7        0x0001bdc4        0x0 Common_WinARM/src/Startup.o
 .glue_7        0x0001bdc4        0x0 Common_WinARM/src/swi_handler.o
 .glue_7        0x0001bdc4        0x0 LL_HL_comm.o
 .glue_7        0x0001bdc4        0x0 mymath.o
 .glue_7        0x0001bdc4        0x0 gpsmath.o
 .glue_7        0x0001bdc4        0x0 sdk.o
 .glue_7        0x0001bdc4        0x0 sdk_telemetry.o
 .glue_7        0x0001bdc4        0x0 buzzer.o
 .glue_7        0x0001bdc4        0x0 lpc_aci_eeprom.o
 .glue_7        0x0001bdc4        0x0 asctecCommIntfOnboard.o
 .glue_7        0x0001bdc4        0x0 buildInfoSetup.o
 .glue_7        0x0001bdc4        0x0 main.o
 .glue_7        0x0001bdc4        0x0 hardware.o
 .glue_7        0x0001bdc4        0x0 system.o
 .glue_7        0x0001bdc4        0x0 uart.o
 .glue_7        0x0001bdc4        0x0 syscalls.o
 .glue_7        0x0001bdc4        0x0 i2c.o
 .glue_7        0x0001bdc4        0x0 i2c1.o
 .glue_7        0x0001bdc4        0x0 Common_WinARM/src/irq.o
 .glue_7        0x0001bdc4        0x0 adc.o
 .glue_7        0x0001bdc4        0x0 ssp.o
 .glue_7        0x0001bdc4        0x0 pelican_ptu.o
 .glue_7        0x0001bdc4        0x0 jetiTelemetry.o
 .glue_7        0x0001bdc4        0x0 LPC2k_ee.o
 .glue_7        0x0001bdc4        0x0 lab.o
 .glue_7        0x0001bdc4        0x0 Utilites.o
 .glue_7        0x0001bdc4        0x0 c:/asctec_arm_sdk/winarm/bin/../lib/gcc/arm-elf/4.1.1/../../../../arm-elf/lib/thumb/interwork\libc.a(memcpy.o)
 .glue_7        0x0001bdc4        0x0 c:/asctec_arm_sdk/winarm/bin/../lib/gcc/arm-elf/4.1.1/../../../../arm-elf/lib/thumb/interwork\libc.a(sprintf.o)
 .glue_7        0x0001bdc4        0x0 c:/asctec_arm_sdk/winarm/bin/../lib/gcc/arm-elf/4.1.1/../../../../arm-elf/lib/thumb/interwork\libc.a(strcpy.o)
 .glue_7        0x0001bdc4        0x0 c:/asctec_arm_sdk/winarm/bin/../lib/gcc/arm-elf/4.1.1/../../../../arm-elf/lib/thumb/interwork\libc.a(strlen.o)
 .glue_7        0x0001bdc4        0x0 c:/asctec_arm_sdk/winarm/bin/../lib/gcc/arm-elf/4.1.1/../../../../arm-elf/lib/thumb/interwork\libc.a(vfprintf.o)
 .glue_7        0x0001bdc4        0x0 c:/asctec_arm_sdk/winarm/bin/../lib/gcc/arm-elf/4.1.1/../../../../arm-elf/lib/thumb/interwork\libc.a(wcrtomb.o)
 .glue_7        0x0001bdc4        0x0 c:/asctec_arm_sdk/winarm/bin/../lib/gcc/arm-elf/4.1.1/../../../../arm-elf/lib/thumb/interwork\libc.a(wcsrtombs.o)
 .glue_7        0x0001bdc4        0x0 c:/asctec_arm_sdk/winarm/bin/../lib/gcc/arm-elf/4.1.1/../../../../arm-elf/lib/thumb/interwork\libc.a(wctomb_r.o)
 .glue_7        0x0001bdc4        0x0 c:/asctec_arm_sdk/winarm/bin/../lib/gcc/arm-elf/4.1.1/../../../../arm-elf/lib/thumb/interwork\libc.a(wsetup.o)
 .glue_7        0x0001bdc4        0x0 c:/asctec_arm_sdk/winarm/bin/../lib/gcc/arm-elf/4.1.1/../../../../arm-elf/lib/thumb/interwork\libc.a(dtoa.o)
 .glue_7        0x0001bdc4        0x0 c:/asctec_arm_sdk/winarm/bin/../lib/gcc/arm-elf/4.1.1/../../../../arm-elf/lib/thumb/interwork\libc.a(fflush.o)
 .glue_7        0x0001bdc4        0x0 c:/asctec_arm_sdk/winarm/bin/../lib/gcc/arm-elf/4.1.1/../../../../arm-elf/lib/thumb/interwork\libc.a(findfp.o)
 .glue_7        0x0001bdc4        0x0 c:/asctec_arm_sdk/winarm/bin/../lib/gcc/arm-elf/4.1.1/../../../../arm-elf/lib/thumb/interwork\libc.a(freer.o)
 .glue_7        0x0001bdc4        0x0 c:/asctec_arm_sdk/winarm/bin/../lib/gcc/arm-elf/4.1.1/../../../../arm-elf/lib/thumb/interwork\libc.a(fvwrite.o)
 .glue_7        0x0001bdc4        0x0 c:/asctec_arm_sdk/winarm/bin/../lib/gcc/arm-elf/4.1.1/../../../../arm-elf/lib/thumb/interwork\libc.a(fwalk.o)
 .glue_7        0x0001bdc4        0x0 c:/asctec_arm_sdk/winarm/bin/../lib/gcc/arm-elf/4.1.1/../../../../arm-elf/lib/thumb/interwork\libc.a(impure.o)
 .glue_7        0x0001bdc4        0x0 c:/asctec_arm_sdk/winarm/bin/../lib/gcc/arm-elf/4.1.1/../../../../arm-elf/lib/thumb/interwork\libc.a(locale.o)
 .glue_7        0x0001bdc4        0x0 c:/asctec_arm_sdk/winarm/bin/../lib/gcc/arm-elf/4.1.1/../../../../arm-elf/lib/thumb/interwork\libc.a(makebuf.o)
 .glue_7        0x0001bdc4        0x0 c:/asctec_arm_sdk/winarm/bin/../lib/gcc/arm-elf/4.1.1/../../../../arm-elf/lib/thumb/interwork\libc.a(mallocr.o)
 .glue_7        0x0001bdc4        0x0 c:/asctec_arm_sdk/winarm/bin/../lib/gcc/arm-elf/4.1.1/../../../../arm-elf/lib/thumb/interwork\libc.a(memchr.o)
 .glue_7        0x0001bdc4        0x0 c:/asctec_arm_sdk/winarm/bin/../lib/gcc/arm-elf/4.1.1/../../../../arm-elf/lib/thumb/interwork\libc.a(memmove.o)
 .glue_7        0x0001bdc4        0x0 c:/asctec_arm_sdk/winarm/bin/../lib/gcc/arm-elf/4.1.1/../../../../arm-elf/lib/thumb/interwork\libc.a(memset.o)
 .glue_7        0x0001bdc4        0x0 c:/asctec_arm_sdk/winarm/bin/../lib/gcc/arm-elf/4.1.1/../../../../arm-elf/lib/thumb/interwork\libc.a(mlock.o)
 .glue_7        0x0001bdc4        0x0 c:/asctec_arm_sdk/winarm/bin/../lib/gcc/arm-elf/4.1.1/../../../../arm-elf/lib/thumb/interwork\libc.a(mprec.o)
 .glue_7        0x0001bdc4        0x0 c:/asctec_arm_sdk/winarm/bin/../lib/gcc/arm-elf/4.1.1/../../../../arm-elf/lib/thumb/interwork\libc.a(reallocr.o)
 .glue_7        0x0001bdc4        0x0 c:/asctec_arm_sdk/winarm/bin/../lib/gcc/arm-elf/4.1.1/../../../../arm-elf/lib/thumb/interwork\libc.a(s_isinf.o)
 .glue_7        0x0001bdc4        0x0 c:/asctec_arm_sdk/winarm/bin/../lib/gcc/arm-elf/4.1.1/../../../../arm-elf/lib/thumb/interwork\libc.a(s_isnan.o)
 .glue_7        0x0001bdc4        0x0 c:/asctec_arm_sdk/winarm/bin/../lib/gcc/arm-elf/4.1.1/../../../../arm-elf/lib/thumb/interwork\libc.a(stdio.o)
 .glue_7        0x0001bdc4        0x0 c:/asctec_arm_sdk/winarm/bin/../lib/gcc/arm-elf/4.1.1/../../../../arm-elf/lib/thumb/interwork\libc.a(strcmp.o)
 .glue_7        0x0001bdc4        0x0 c:/asctec_arm_sdk/winarm/bin/../lib/gcc/arm-elf/4.1.1/../../../../arm-elf/lib/thumb/interwork\libc.a(callocr.o)
 .glue_7        0x0001bdc4        0x0 c:/asctec_arm_sdk/winarm/bin/../lib/gcc/arm-elf/4.1.1/../../../../arm-elf/lib/thumb/interwork\libc.a(fclose.o)
 .glue_7        0x0001bdc4        0x0 c:/asctec_arm_sdk/winarm/bin/../lib/gcc/arm-elf/4.1.1/thumb/interwork\libgcc.a(_udivsi3.o)
 .glue_7        0x0001bdc4        0x0 c:/asctec_arm_sdk/winarm/bin/../lib/gcc/arm-elf/4.1.1/thumb/interwork\libgcc.a(_divsi3.o)
 .glue_7        0x0001bdc4        0x0 c:/asctec_arm_sdk/winarm/bin/../lib/gcc/arm-elf/4.1.1/thumb/interwork\libgcc.a(_umodsi3.o)
 .glue_7        0x0001bdc4        0x0 c:/asctec_arm_sdk/winarm/bin/../lib/gcc/arm-elf/4.1.1/thumb/interwork\libgcc.a(_modsi3.o)
 .glue_7        0x0001bdc4        0x0 c:/asctec_arm_sdk/winarm/bin/../lib/gcc/arm-elf/4.1.1/thumb/interwork\libgcc.a(_dvmd_tls.o)
 .glue_7        0x0001bdc4        0x0 c:/asctec_arm_sdk/winarm/bin/../lib/gcc/arm-elf/4.1.1/thumb/interwork\libgcc.a(_addsubdf3.o)
 .glue_7        0x0001bdc4        0x0 c:/asctec_arm_sdk/winarm/bin/../lib/gcc/arm-elf/4.1.1/thumb/interwork\libgcc.a(_muldivdf3.o)
 .glue_7        0x0001bdc4        0x0 c:/asctec_arm_sdk/winarm/bin/../lib/gcc/arm-elf/4.1.1/thumb/interwork\libgcc.a(_cmpdf2.o)
 .glue_7        0x0001bdc4        0x0 c:/asctec_arm_sdk/winarm/bin/../lib/gcc/arm-elf/4.1.1/thumb/interwork\libgcc.a(_fixdfsi.o)
 .glue_7        0x0001bdc4        0x0 c:/asctec_arm_sdk/winarm/bin/../lib/gcc/arm-elf/4.1.1/thumb/interwork\libgcc.a(_truncdfsf2.o)
 .glue_7        0x0001bdc4        0x0 c:/asctec_arm_sdk/winarm/bin/../lib/gcc/arm-elf/4.1.1/thumb/interwork\libgcc.a(_addsubsf3.o)
 .glue_7        0x0001bdc4        0x0 c:/asctec_arm_sdk/winarm/bin/../lib/gcc/arm-elf/4.1.1/thumb/interwork\libgcc.a(_muldivsf3.o)
 .glue_7        0x0001bdc4        0x0 c:/asctec_arm_sdk/winarm/bin/../lib/gcc/arm-elf/4.1.1/thumb/interwork\libgcc.a(_cmpsf2.o)
 .glue_7        0x0001bdc4        0x0 c:/asctec_arm_sdk/winarm/bin/../lib/gcc/arm-elf/4.1.1/thumb/interwork\libgcc.a(_fixunssfsi.o)
 .glue_7        0x0001bdc4        0x0 ./\libdeclination.a(declination.o)
 .glue_7        0x0001bdc4        0x0 ./\libublox.a(ublox.o)
 .glue_7        0x0001bdc4        0x0 c:/asctec_arm_sdk/winarm/bin/../lib/gcc/arm-elf/4.1.1/../../../../arm-elf/lib/thumb/interwork\libm.a(s_cos.o)
 .glue_7        0x0001bdc4        0x0 c:/asctec_arm_sdk/winarm/bin/../lib/gcc/arm-elf/4.1.1/../../../../arm-elf/lib/thumb/interwork\libm.a(s_sin.o)
 .glue_7        0x0001bdc4        0x0 c:/asctec_arm_sdk/winarm/bin/../lib/gcc/arm-elf/4.1.1/../../../../arm-elf/lib/thumb/interwork\libm.a(w_atan2.o)
 .glue_7        0x0001bdc4        0x0 c:/asctec_arm_sdk/winarm/bin/../lib/gcc/arm-elf/4.1.1/../../../../arm-elf/lib/thumb/interwork\libm.a(w_pow.o)
 .glue_7        0x0001bdc4        0x0 c:/asctec_arm_sdk/winarm/bin/../lib/gcc/arm-elf/4.1.1/../../../../arm-elf/lib/thumb/interwork\libm.a(w_sqrt.o)
 .glue_7        0x0001bdc4        0x0 c:/asctec_arm_sdk/winarm/bin/../lib/gcc/arm-elf/4.1.1/../../../../arm-elf/lib/thumb/interwork\libm.a(wf_fmod.o)
 .glue_7        0x0001bdc4        0x0 c:/asctec_arm_sdk/winarm/bin/../lib/gcc/arm-elf/4.1.1/../../../../arm-elf/lib/thumb/interwork\libm.a(wf_pow.o)
 .glue_7        0x0001bdc4        0x0 c:/asctec_arm_sdk/winarm/bin/../lib/gcc/arm-elf/4.1.1/../../../../arm-elf/lib/thumb/interwork\libm.a(e_atan2.o)
 .glue_7        0x0001bdc4        0x0 c:/asctec_arm_sdk/winarm/bin/../lib/gcc/arm-elf/4.1.1/../../../../arm-elf/lib/thumb/interwork\libm.a(e_pow.o)
 .glue_7        0x0001bdc4        0x0 c:/asctec_arm_sdk/winarm/bin/../lib/gcc/arm-elf/4.1.1/../../../../arm-elf/lib/thumb/interwork\libm.a(e_rem_pio2.o)
 .glue_7        0x0001bdc4        0x0 c:/asctec_arm_sdk/winarm/bin/../lib/gcc/arm-elf/4.1.1/../../../../arm-elf/lib/thumb/interwork\libm.a(e_sqrt.o)
 .glue_7        0x0001bdc4        0x0 c:/asctec_arm_sdk/winarm/bin/../lib/gcc/arm-elf/4.1.1/../../../../arm-elf/lib/thumb/interwork\libm.a(ef_fmod.o)
 .glue_7        0x0001bdc4        0x0 c:/asctec_arm_sdk/winarm/bin/../lib/gcc/arm-elf/4.1.1/../../../../arm-elf/lib/thumb/interwork\libm.a(ef_pow.o)
 .glue_7        0x0001bdc4        0x0 c:/asctec_arm_sdk/winarm/bin/../lib/gcc/arm-elf/4.1.1/../../../../arm-elf/lib/thumb/interwork\libm.a(ef_sqrt.o)
 .glue_7        0x0001bdc4        0x0 c:/asctec_arm_sdk/winarm/bin/../lib/gcc/arm-elf/4.1.1/../../../../arm-elf/lib/thumb/interwork\libm.a(k_cos.o)
 .glue_7        0x0001bdc4        0x0 c:/asctec_arm_sdk/winarm/bin/../lib/gcc/arm-elf/4.1.1/../../../../arm-elf/lib/thumb/interwork\libm.a(k_rem_pio2.o)
 .glue_7        0x0001bdc4        0x0 c:/asctec_arm_sdk/winarm/bin/../lib/gcc/arm-elf/4.1.1/../../../../arm-elf/lib/thumb/interwork\libm.a(k_sin.o)
 .glue_7        0x0001bdc4        0x0 c:/asctec_arm_sdk/winarm/bin/../lib/gcc/arm-elf/4.1.1/../../../../arm-elf/lib/thumb/interwork\libm.a(s_atan.o)
 .glue_7        0x0001bdc4        0x0 c:/asctec_arm_sdk/winarm/bin/../lib/gcc/arm-elf/4.1.1/../../../../arm-elf/lib/thumb/interwork\libm.a(s_fabs.o)
 .glue_7        0x0001bdc4        0x0 c:/asctec_arm_sdk/winarm/bin/../lib/gcc/arm-elf/4.1.1/../../../../arm-elf/lib/thumb/interwork\libm.a(s_finite.o)
 .glue_7        0x0001bdc4        0x0 c:/asctec_arm_sdk/winarm/bin/../lib/gcc/arm-elf/4.1.1/../../../../arm-elf/lib/thumb/interwork\libm.a(s_floor.o)
 .glue_7        0x0001bdc4        0x0 c:/asctec_arm_sdk/winarm/bin/../lib/gcc/arm-elf/4.1.1/../../../../arm-elf/lib/thumb/interwork\libm.a(s_lib_ver.o)
 .glue_7        0x0001bdc4        0x0 c:/asctec_arm_sdk/winarm/bin/../lib/gcc/arm-elf/4.1.1/../../../../arm-elf/lib/thumb/interwork\libm.a(s_matherr.o)
 .glue_7        0x0001bdc4        0x0 c:/asctec_arm_sdk/winarm/bin/../lib/gcc/arm-elf/4.1.1/../../../../arm-elf/lib/thumb/interwork\libm.a(s_rint.o)
 .glue_7        0x0001bdc4        0x0 c:/asctec_arm_sdk/winarm/bin/../lib/gcc/arm-elf/4.1.1/../../../../arm-elf/lib/thumb/interwork\libm.a(s_scalbn.o)
 .glue_7        0x0001bdc4        0x0 c:/asctec_arm_sdk/winarm/bin/../lib/gcc/arm-elf/4.1.1/../../../../arm-elf/lib/thumb/interwork\libm.a(sf_fabs.o)
 .glue_7        0x0001bdc4        0x0 c:/asctec_arm_sdk/winarm/bin/../lib/gcc/arm-elf/4.1.1/../../../../arm-elf/lib/thumb/interwork\libm.a(sf_finite.o)
 .glue_7        0x0001bdc4        0x0 c:/asctec_arm_sdk/winarm/bin/../lib/gcc/arm-elf/4.1.1/../../../../arm-elf/lib/thumb/interwork\libm.a(sf_isnan.o)
 .glue_7        0x0001bdc4        0x0 c:/asctec_arm_sdk/winarm/bin/../lib/gcc/arm-elf/4.1.1/../../../../arm-elf/lib/thumb/interwork\libm.a(sf_scalbn.o)
 .glue_7        0x0001bdc4        0x0 c:/asctec_arm_sdk/winarm/bin/../lib/gcc/arm-elf/4.1.1/../../../../arm-elf/lib/thumb/interwork\libm.a(s_copysign.o)
 .glue_7        0x0001bdc4        0x0 c:/asctec_arm_sdk/winarm/bin/../lib/gcc/arm-elf/4.1.1/../../../../arm-elf/lib/thumb/interwork\libm.a(sf_copysign.o)
 .glue_7        0x0001bdc4        0x0 c:/asctec_arm_sdk/winarm/bin/../lib/gcc/arm-elf/4.1.1/thumb/interwork\libgcc.a(_fixsfsi.o)
 .glue_7        0x0001bdc4       0x9c c:/asctec_arm_sdk/winarm/bin/../lib/gcc/arm-elf/4.1.1/../../../../arm-elf/lib/thumb/interwork\libg.a(errno.o)
                0x0001be0c                __strcpy_from_arm
                0x0001be54                __atan2_from_arm
                0x0001be00                __strlen_from_arm
                0x0001bddc                __cos_from_arm
                0x0001be3c                __powf_from_arm
                0x0001bdf4                ____udivsi3_from_arm
                0x0001bde8                __sprintf_from_arm
                0x0001bdd0                ____divsi3_from_arm
                0x0001bdc4                __memcpy_from_arm
                0x0001be48                __sin_from_arm
                0x0001be24                __fmodf_from_arm
                0x0001be18                __sqrt_from_arm
                0x0001be30                __pow_from_arm
 *(.glue_7t)
 .glue_7t       0x0001be60        0x0 Common_WinARM/src/Startup.o
 .glue_7t       0x0001be60        0x0 Common_WinARM/src/swi_handler.o
 .glue_7t       0x0001be60        0x0 LL_HL_comm.o
 .glue_7t       0x0001be60        0x0 mymath.o
 .glue_7t       0x0001be60        0x0 gpsmath.o
 .glue_7t       0x0001be60        0x0 sdk.o
 .glue_7t       0x0001be60        0x0 sdk_telemetry.o
 .glue_7t       0x0001be60        0x0 buzzer.o
 .glue_7t       0x0001be60        0x0 lpc_aci_eeprom.o
 .glue_7t       0x0001be60        0x0 asctecCommIntfOnboard.o
 .glue_7t       0x0001be60        0x0 buildInfoSetup.o
 .glue_7t       0x0001be60        0x0 main.o
 .glue_7t       0x0001be60        0x0 hardware.o
 .glue_7t       0x0001be60        0x0 system.o
 .glue_7t       0x0001be60        0x0 uart.o
 .glue_7t       0x0001be60        0x0 syscalls.o
 .glue_7t       0x0001be60        0x0 i2c.o
 .glue_7t       0x0001be60        0x0 i2c1.o
 .glue_7t       0x0001be60        0x0 Common_WinARM/src/irq.o
 .glue_7t       0x0001be60        0x0 adc.o
 .glue_7t       0x0001be60        0x0 ssp.o
 .glue_7t       0x0001be60        0x0 pelican_ptu.o
 .glue_7t       0x0001be60        0x0 jetiTelemetry.o
 .glue_7t       0x0001be60        0x0 LPC2k_ee.o
 .glue_7t       0x0001be60        0x0 lab.o
 .glue_7t       0x0001be60        0x0 Utilites.o
 .glue_7t       0x0001be60        0x0 c:/asctec_arm_sdk/winarm/bin/../lib/gcc/arm-elf/4.1.1/../../../../arm-elf/lib/thumb/interwork\libc.a(memcpy.o)
 .glue_7t       0x0001be60        0x0 c:/asctec_arm_sdk/winarm/bin/../lib/gcc/arm-elf/4.1.1/../../../../arm-elf/lib/thumb/interwork\libc.a(sprintf.o)
 .glue_7t       0x0001be60        0x0 c:/asctec_arm_sdk/winarm/bin/../lib/gcc/arm-elf/4.1.1/../../../../arm-elf/lib/thumb/interwork\libc.a(strcpy.o)
 .glue_7t       0x0001be60        0x0 c:/asctec_arm_sdk/winarm/bin/../lib/gcc/arm-elf/4.1.1/../../../../arm-elf/lib/thumb/interwork\libc.a(strlen.o)
 .glue_7t       0x0001be60        0x0 c:/asctec_arm_sdk/winarm/bin/../lib/gcc/arm-elf/4.1.1/../../../../arm-elf/lib/thumb/interwork\libc.a(vfprintf.o)
 .glue_7t       0x0001be60        0x0 c:/asctec_arm_sdk/winarm/bin/../lib/gcc/arm-elf/4.1.1/../../../../arm-elf/lib/thumb/interwork\libc.a(wcrtomb.o)
 .glue_7t       0x0001be60        0x0 c:/asctec_arm_sdk/winarm/bin/../lib/gcc/arm-elf/4.1.1/../../../../arm-elf/lib/thumb/interwork\libc.a(wcsrtombs.o)
 .glue_7t       0x0001be60        0x0 c:/asctec_arm_sdk/winarm/bin/../lib/gcc/arm-elf/4.1.1/../../../../arm-elf/lib/thumb/interwork\libc.a(wctomb_r.o)
 .glue_7t       0x0001be60        0x0 c:/asctec_arm_sdk/winarm/bin/../lib/gcc/arm-elf/4.1.1/../../../../arm-elf/lib/thumb/interwork\libc.a(wsetup.o)
 .glue_7t       0x0001be60        0x0 c:/asctec_arm_sdk/winarm/bin/../lib/gcc/arm-elf/4.1.1/../../../../arm-elf/lib/thumb/interwork\libc.a(dtoa.o)
 .glue_7t       0x0001be60        0x0 c:/asctec_arm_sdk/winarm/bin/../lib/gcc/arm-elf/4.1.1/../../../../arm-elf/lib/thumb/interwork\libc.a(fflush.o)
 .glue_7t       0x0001be60        0x0 c:/asctec_arm_sdk/winarm/bin/../lib/gcc/arm-elf/4.1.1/../../../../arm-elf/lib/thumb/interwork\libc.a(findfp.o)
 .glue_7t       0x0001be60        0x0 c:/asctec_arm_sdk/winarm/bin/../lib/gcc/arm-elf/4.1.1/../../../../arm-elf/lib/thumb/interwork\libc.a(freer.o)
 .glue_7t       0x0001be60        0x0 c:/asctec_arm_sdk/winarm/bin/../lib/gcc/arm-elf/4.1.1/../../../../arm-elf/lib/thumb/interwork\libc.a(fvwrite.o)
 .glue_7t       0x0001be60        0x0 c:/asctec_arm_sdk/winarm/bin/../lib/gcc/arm-elf/4.1.1/../../../../arm-elf/lib/thumb/interwork\libc.a(fwalk.o)
 .glue_7t       0x0001be60        0x0 c:/asctec_arm_sdk/winarm/bin/../lib/gcc/arm-elf/4.1.1/../../../../arm-elf/lib/thumb/interwork\libc.a(impure.o)
 .glue_7t       0x0001be60        0x0 c:/asctec_arm_sdk/winarm/bin/../lib/gcc/arm-elf/4.1.1/../../../../arm-elf/lib/thumb/interwork\libc.a(locale.o)
 .glue_7t       0x0001be60        0x0 c:/asctec_arm_sdk/winarm/bin/../lib/gcc/arm-elf/4.1.1/../../../../arm-elf/lib/thumb/interwork\libc.a(makebuf.o)
 .glue_7t       0x0001be60        0x0 c:/asctec_arm_sdk/winarm/bin/../lib/gcc/arm-elf/4.1.1/../../../../arm-elf/lib/thumb/interwork\libc.a(mallocr.o)
 .glue_7t       0x0001be60        0x0 c:/asctec_arm_sdk/winarm/bin/../lib/gcc/arm-elf/4.1.1/../../../../arm-elf/lib/thumb/interwork\libc.a(memchr.o)
 .glue_7t       0x0001be60        0x0 c:/asctec_arm_sdk/winarm/bin/../lib/gcc/arm-elf/4.1.1/../../../../arm-elf/lib/thumb/interwork\libc.a(memmove.o)
 .glue_7t       0x0001be60        0x0 c:/asctec_arm_sdk/winarm/bin/../lib/gcc/arm-elf/4.1.1/../../../../arm-elf/lib/thumb/interwork\libc.a(memset.o)
 .glue_7t       0x0001be60        0x0 c:/asctec_arm_sdk/winarm/bin/../lib/gcc/arm-elf/4.1.1/../../../../arm-elf/lib/thumb/interwork\libc.a(mlock.o)
 .glue_7t       0x0001be60        0x0 c:/asctec_arm_sdk/winarm/bin/../lib/gcc/arm-elf/4.1.1/../../../../arm-elf/lib/thumb/interwork\libc.a(mprec.o)
 .glue_7t       0x0001be60        0x0 c:/asctec_arm_sdk/winarm/bin/../lib/gcc/arm-elf/4.1.1/../../../../arm-elf/lib/thumb/interwork\libc.a(reallocr.o)
 .glue_7t       0x0001be60        0x0 c:/asctec_arm_sdk/winarm/bin/../lib/gcc/arm-elf/4.1.1/../../../../arm-elf/lib/thumb/interwork\libc.a(s_isinf.o)
 .glue_7t       0x0001be60        0x0 c:/asctec_arm_sdk/winarm/bin/../lib/gcc/arm-elf/4.1.1/../../../../arm-elf/lib/thumb/interwork\libc.a(s_isnan.o)
 .glue_7t       0x0001be60        0x0 c:/asctec_arm_sdk/winarm/bin/../lib/gcc/arm-elf/4.1.1/../../../../arm-elf/lib/thumb/interwork\libc.a(stdio.o)
 .glue_7t       0x0001be60        0x0 c:/asctec_arm_sdk/winarm/bin/../lib/gcc/arm-elf/4.1.1/../../../../arm-elf/lib/thumb/interwork\libc.a(strcmp.o)
 .glue_7t       0x0001be60        0x0 c:/asctec_arm_sdk/winarm/bin/../lib/gcc/arm-elf/4.1.1/../../../../arm-elf/lib/thumb/interwork\libc.a(callocr.o)
 .glue_7t       0x0001be60        0x0 c:/asctec_arm_sdk/winarm/bin/../lib/gcc/arm-elf/4.1.1/../../../../arm-elf/lib/thumb/interwork\libc.a(fclose.o)
 .glue_7t       0x0001be60        0x0 c:/asctec_arm_sdk/winarm/bin/../lib/gcc/arm-elf/4.1.1/thumb/interwork\libgcc.a(_udivsi3.o)
 .glue_7t       0x0001be60        0x0 c:/asctec_arm_sdk/winarm/bin/../lib/gcc/arm-elf/4.1.1/thumb/interwork\libgcc.a(_divsi3.o)
 .glue_7t       0x0001be60        0x0 c:/asctec_arm_sdk/winarm/bin/../lib/gcc/arm-elf/4.1.1/thumb/interwork\libgcc.a(_umodsi3.o)
 .glue_7t       0x0001be60        0x0 c:/asctec_arm_sdk/winarm/bin/../lib/gcc/arm-elf/4.1.1/thumb/interwork\libgcc.a(_modsi3.o)
 .glue_7t       0x0001be60        0x0 c:/asctec_arm_sdk/winarm/bin/../lib/gcc/arm-elf/4.1.1/thumb/interwork\libgcc.a(_dvmd_tls.o)
 .glue_7t       0x0001be60        0x0 c:/asctec_arm_sdk/winarm/bin/../lib/gcc/arm-elf/4.1.1/thumb/interwork\libgcc.a(_addsubdf3.o)
 .glue_7t       0x0001be60        0x0 c:/asctec_arm_sdk/winarm/bin/../lib/gcc/arm-elf/4.1.1/thumb/interwork\libgcc.a(_muldivdf3.o)
 .glue_7t       0x0001be60        0x0 c:/asctec_arm_sdk/winarm/bin/../lib/gcc/arm-elf/4.1.1/thumb/interwork\libgcc.a(_cmpdf2.o)
 .glue_7t       0x0001be60        0x0 c:/asctec_arm_sdk/winarm/bin/../lib/gcc/arm-elf/4.1.1/thumb/interwork\libgcc.a(_fixdfsi.o)
 .glue_7t       0x0001be60        0x0 c:/asctec_arm_sdk/winarm/bin/../lib/gcc/arm-elf/4.1.1/thumb/interwork\libgcc.a(_truncdfsf2.o)
 .glue_7t       0x0001be60        0x0 c:/asctec_arm_sdk/winarm/bin/../lib/gcc/arm-elf/4.1.1/thumb/interwork\libgcc.a(_addsubsf3.o)
 .glue_7t       0x0001be60        0x0 c:/asctec_arm_sdk/winarm/bin/../lib/gcc/arm-elf/4.1.1/thumb/interwork\libgcc.a(_muldivsf3.o)
 .glue_7t       0x0001be60        0x0 c:/asctec_arm_sdk/winarm/bin/../lib/gcc/arm-elf/4.1.1/thumb/interwork\libgcc.a(_cmpsf2.o)
 .glue_7t       0x0001be60        0x0 c:/asctec_arm_sdk/winarm/bin/../lib/gcc/arm-elf/4.1.1/thumb/interwork\libgcc.a(_fixunssfsi.o)
 .glue_7t       0x0001be60        0x0 ./\libdeclination.a(declination.o)
 .glue_7t       0x0001be60        0x0 ./\libublox.a(ublox.o)
 .glue_7t       0x0001be60        0x0 c:/asctec_arm_sdk/winarm/bin/../lib/gcc/arm-elf/4.1.1/../../../../arm-elf/lib/thumb/interwork\libm.a(s_cos.o)
 .glue_7t       0x0001be60        0x0 c:/asctec_arm_sdk/winarm/bin/../lib/gcc/arm-elf/4.1.1/../../../../arm-elf/lib/thumb/interwork\libm.a(s_sin.o)
 .glue_7t       0x0001be60        0x0 c:/asctec_arm_sdk/winarm/bin/../lib/gcc/arm-elf/4.1.1/../../../../arm-elf/lib/thumb/interwork\libm.a(w_atan2.o)
 .glue_7t       0x0001be60        0x0 c:/asctec_arm_sdk/winarm/bin/../lib/gcc/arm-elf/4.1.1/../../../../arm-elf/lib/thumb/interwork\libm.a(w_pow.o)
 .glue_7t       0x0001be60        0x0 c:/asctec_arm_sdk/winarm/bin/../lib/gcc/arm-elf/4.1.1/../../../../arm-elf/lib/thumb/interwork\libm.a(w_sqrt.o)
 .glue_7t       0x0001be60        0x0 c:/asctec_arm_sdk/winarm/bin/../lib/gcc/arm-elf/4.1.1/../../../../arm-elf/lib/thumb/interwork\libm.a(wf_fmod.o)
 .glue_7t       0x0001be60        0x0 c:/asctec_arm_sdk/winarm/bin/../lib/gcc/arm-elf/4.1.1/../../../../arm-elf/lib/thumb/interwork\libm.a(wf_pow.o)
 .glue_7t       0x0001be60        0x0 c:/asctec_arm_sdk/winarm/bin/../lib/gcc/arm-elf/4.1.1/../../../../arm-elf/lib/thumb/interwork\libm.a(e_atan2.o)
 .glue_7t       0x0001be60        0x0 c:/asctec_arm_sdk/winarm/bin/../lib/gcc/arm-elf/4.1.1/../../../../arm-elf/lib/thumb/interwork\libm.a(e_pow.o)
 .glue_7t       0x0001be60        0x0 c:/asctec_arm_sdk/winarm/bin/../lib/gcc/arm-elf/4.1.1/../../../../arm-elf/lib/thumb/interwork\libm.a(e_rem_pio2.o)
 .glue_7t       0x0001be60        0x0 c:/asctec_arm_sdk/winarm/bin/../lib/gcc/arm-elf/4.1.1/../../../../arm-elf/lib/thumb/interwork\libm.a(e_sqrt.o)
 .glue_7t       0x0001be60        0x0 c:/asctec_arm_sdk/winarm/bin/../lib/gcc/arm-elf/4.1.1/../../../../arm-elf/lib/thumb/interwork\libm.a(ef_fmod.o)
 .glue_7t       0x0001be60        0x0 c:/asctec_arm_sdk/winarm/bin/../lib/gcc/arm-elf/4.1.1/../../../../arm-elf/lib/thumb/interwork\libm.a(ef_pow.o)
 .glue_7t       0x0001be60        0x0 c:/asctec_arm_sdk/winarm/bin/../lib/gcc/arm-elf/4.1.1/../../../../arm-elf/lib/thumb/interwork\libm.a(ef_sqrt.o)
 .glue_7t       0x0001be60        0x0 c:/asctec_arm_sdk/winarm/bin/../lib/gcc/arm-elf/4.1.1/../../../../arm-elf/lib/thumb/interwork\libm.a(k_cos.o)
 .glue_7t       0x0001be60        0x0 c:/asctec_arm_sdk/winarm/bin/../lib/gcc/arm-elf/4.1.1/../../../../arm-elf/lib/thumb/interwork\libm.a(k_rem_pio2.o)
 .glue_7t       0x0001be60        0x0 c:/asctec_arm_sdk/winarm/bin/../lib/gcc/arm-elf/4.1.1/../../../../arm-elf/lib/thumb/interwork\libm.a(k_sin.o)
 .glue_7t       0x0001be60        0x0 c:/asctec_arm_sdk/winarm/bin/../lib/gcc/arm-elf/4.1.1/../../../../arm-elf/lib/thumb/interwork\libm.a(s_atan.o)
 .glue_7t       0x0001be60        0x0 c:/asctec_arm_sdk/winarm/bin/../lib/gcc/arm-elf/4.1.1/../../../../arm-elf/lib/thumb/interwork\libm.a(s_fabs.o)
 .glue_7t       0x0001be60        0x0 c:/asctec_arm_sdk/winarm/bin/../lib/gcc/arm-elf/4.1.1/../../../../arm-elf/lib/thumb/interwork\libm.a(s_finite.o)
 .glue_7t       0x0001be60        0x0 c:/asctec_arm_sdk/winarm/bin/../lib/gcc/arm-elf/4.1.1/../../../../arm-elf/lib/thumb/interwork\libm.a(s_floor.o)
 .glue_7t       0x0001be60        0x0 c:/asctec_arm_sdk/winarm/bin/../lib/gcc/arm-elf/4.1.1/../../../../arm-elf/lib/thumb/interwork\libm.a(s_lib_ver.o)
 .glue_7t       0x0001be60        0x0 c:/asctec_arm_sdk/winarm/bin/../lib/gcc/arm-elf/4.1.1/../../../../arm-elf/lib/thumb/interwork\libm.a(s_matherr.o)
 .glue_7t       0x0001be60        0x0 c:/asctec_arm_sdk/winarm/bin/../lib/gcc/arm-elf/4.1.1/../../../../arm-elf/lib/thumb/interwork\libm.a(s_rint.o)
 .glue_7t       0x0001be60        0x0 c:/asctec_arm_sdk/winarm/bin/../lib/gcc/arm-elf/4.1.1/../../../../arm-elf/lib/thumb/interwork\libm.a(s_scalbn.o)
 .glue_7t       0x0001be60        0x0 c:/asctec_arm_sdk/winarm/bin/../lib/gcc/arm-elf/4.1.1/../../../../arm-elf/lib/thumb/interwork\libm.a(sf_fabs.o)
 .glue_7t       0x0001be60        0x0 c:/asctec_arm_sdk/winarm/bin/../lib/gcc/arm-elf/4.1.1/../../../../arm-elf/lib/thumb/interwork\libm.a(sf_finite.o)
 .glue_7t       0x0001be60        0x0 c:/asctec_arm_sdk/winarm/bin/../lib/gcc/arm-elf/4.1.1/../../../../arm-elf/lib/thumb/interwork\libm.a(sf_isnan.o)
 .glue_7t       0x0001be60        0x0 c:/asctec_arm_sdk/winarm/bin/../lib/gcc/arm-elf/4.1.1/../../../../arm-elf/lib/thumb/interwork\libm.a(sf_scalbn.o)
 .glue_7t       0x0001be60        0x0 c:/asctec_arm_sdk/winarm/bin/../lib/gcc/arm-elf/4.1.1/../../../../arm-elf/lib/thumb/interwork\libm.a(s_copysign.o)
 .glue_7t       0x0001be60        0x0 c:/asctec_arm_sdk/winarm/bin/../lib/gcc/arm-elf/4.1.1/../../../../arm-elf/lib/thumb/interwork\libm.a(sf_copysign.o)
 .glue_7t       0x0001be60        0x0 c:/asctec_arm_sdk/winarm/bin/../lib/gcc/arm-elf/4.1.1/thumb/interwork\libgcc.a(_fixsfsi.o)
 .glue_7t       0x0001be60       0xf0 c:/asctec_arm_sdk/winarm/bin/../lib/gcc/arm-elf/4.1.1/../../../../arm-elf/lib/thumb/interwork\libg.a(errno.o)
                0x0001bebc                ___sbrk_r_change_to_arm
                0x0001bee8                ___read_r_from_thumb
                0x0001bf48                ____lesf2_from_thumb
                0x0001bea8                ____gtdf2_from_thumb
                0x0001bf20                ____divsf3_from_thumb
                0x0001be88                ____subdf3_from_thumb
                0x0001be64                ____ltdf2_change_to_arm
                0x0001bef4                ____eqsf2_change_to_arm
                0x0001bf18                ____ledf2_from_thumb
                0x0001bf2c                ____addsf3_change_to_arm
                0x0001be8c                ____subdf3_change_to_arm
                0x0001bf38                ____floatsisf_from_thumb
                0x0001bef8                ____extendsfdf2_from_thumb
                0x0001beb4                ____gedf2_change_to_arm
                0x0001bec0                ___fstat_r_from_thumb
                0x0001becc                __isatty_change_to_arm
                0x0001be70                ____eqdf2_from_thumb
                0x0001bed4                ___close_r_change_to_arm
                0x0001beec                ___read_r_change_to_arm
                0x0001bf08                ____ltsf2_from_thumb
                0x0001be98                ____fixdfsi_from_thumb
                0x0001bea4                ____divdf3_change_to_arm
                0x0001bf4c                ____lesf2_change_to_arm
                0x0001beb0                ____gedf2_from_thumb
                0x0001bec4                ___fstat_r_change_to_arm
                0x0001bf00                ____truncdfsf2_from_thumb
                0x0001be94                ____muldf3_change_to_arm
                0x0001bedc                ___lseek_r_change_to_arm
                0x0001bf24                ____divsf3_change_to_arm
                0x0001be9c                ____fixdfsi_change_to_arm
                0x0001bea0                ____divdf3_from_thumb
                0x0001bf40                ____gtsf2_from_thumb
                0x0001bf14                ____mulsf3_change_to_arm
                0x0001be84                ____adddf3_change_to_arm
                0x0001beac                ____gtdf2_change_to_arm
                0x0001bee4                ___write_r_change_to_arm
                0x0001bed8                ___lseek_r_from_thumb
                0x0001bf04                ____truncdfsf2_change_to_arm
                0x0001befc                ____extendsfdf2_change_to_arm
                0x0001be78                ____floatsidf_from_thumb
                0x0001be60                ____ltdf2_from_thumb
                0x0001bf3c                ____floatsisf_change_to_arm
                0x0001be6c                ____nedf2_change_to_arm
                0x0001bf30                ____subsf3_from_thumb
                0x0001be80                ____adddf3_from_thumb
                0x0001bed0                ___close_r_from_thumb
                0x0001bf44                ____gtsf2_change_to_arm
                0x0001be74                ____eqdf2_change_to_arm
                0x0001bf0c                ____ltsf2_change_to_arm
                0x0001bf10                ____mulsf3_from_thumb
                0x0001bf28                ____addsf3_from_thumb
                0x0001beb8                ___sbrk_r_from_thumb
                0x0001be90                ____muldf3_from_thumb
                0x0001bef0                ____eqsf2_from_thumb
                0x0001bf34                ____subsf3_change_to_arm
                0x0001be68                ____nedf2_from_thumb
                0x0001bf1c                ____ledf2_change_to_arm
                0x0001bee0                ___write_r_from_thumb
                0x0001be7c                ____floatsidf_change_to_arm
                0x0001bec8                __isatty_from_thumb
 *(.gcc_except_table)
 *(.rodata)
 .rodata        0x0001bf50        0x6 asctecCommIntfOnboard.o
 .rodata        0x0001bf56       0x24 buildInfoSetup.o
 *fill*         0x0001bf7a        0x2 00
 .rodata        0x0001bf7c      0x288 main.o
 .rodata        0x0001c204      0x184 c:/asctec_arm_sdk/winarm/bin/../lib/gcc/arm-elf/4.1.1/../../../../arm-elf/lib/thumb/interwork\libc.a(vfprintf.o)
 .rodata        0x0001c388       0x18 c:/asctec_arm_sdk/winarm/bin/../lib/gcc/arm-elf/4.1.1/../../../../arm-elf/lib/thumb/interwork\libc.a(dtoa.o)
 .rodata        0x0001c3a0        0x4 c:/asctec_arm_sdk/winarm/bin/../lib/gcc/arm-elf/4.1.1/../../../../arm-elf/lib/thumb/interwork\libc.a(impure.o)
                0x0001c3a0                _global_impure_ptr
 .rodata        0x0001c3a4       0x34 c:/asctec_arm_sdk/winarm/bin/../lib/gcc/arm-elf/4.1.1/../../../../arm-elf/lib/thumb/interwork\libc.a(locale.o)
 .rodata        0x0001c3d8      0x124 c:/asctec_arm_sdk/winarm/bin/../lib/gcc/arm-elf/4.1.1/../../../../arm-elf/lib/thumb/interwork\libc.a(mprec.o)
                0x0001c4c8                __mprec_tinytens
                0x0001c3d8                __mprec_tens
                0x0001c4a0                __mprec_bigtens
 .rodata        0x0001c4fc       0xe2 ./\libublox.a(ublox.o)
 *fill*         0x0001c5de        0x2 00
 .rodata        0x0001c5e0       0x30 c:/asctec_arm_sdk/winarm/bin/../lib/gcc/arm-elf/4.1.1/../../../../arm-elf/lib/thumb/interwork\libm.a(e_pow.o)
 .rodata        0x0001c610      0x188 c:/asctec_arm_sdk/winarm/bin/../lib/gcc/arm-elf/4.1.1/../../../../arm-elf/lib/thumb/interwork\libm.a(e_rem_pio2.o)
 .rodata        0x0001c798        0x8 c:/asctec_arm_sdk/winarm/bin/../lib/gcc/arm-elf/4.1.1/../../../../arm-elf/lib/thumb/interwork\libm.a(ef_fmod.o)
 .rodata        0x0001c7a0       0x18 c:/asctec_arm_sdk/winarm/bin/../lib/gcc/arm-elf/4.1.1/../../../../arm-elf/lib/thumb/interwork\libm.a(ef_pow.o)
 .rodata        0x0001c7b8       0x50 c:/asctec_arm_sdk/winarm/bin/../lib/gcc/arm-elf/4.1.1/../../../../arm-elf/lib/thumb/interwork\libm.a(k_rem_pio2.o)
 .rodata        0x0001c808       0x40 c:/asctec_arm_sdk/winarm/bin/../lib/gcc/arm-elf/4.1.1/../../../../arm-elf/lib/thumb/interwork\libm.a(s_atan.o)
 .rodata        0x0001c848        0x4 c:/asctec_arm_sdk/winarm/bin/../lib/gcc/arm-elf/4.1.1/../../../../arm-elf/lib/thumb/interwork\libm.a(s_lib_ver.o)
                0x0001c848                __fdlib_version
 .rodata        0x0001c84c       0x10 c:/asctec_arm_sdk/winarm/bin/../lib/gcc/arm-elf/4.1.1/../../../../arm-elf/lib/thumb/interwork\libm.a(s_rint.o)
 *(.rodata*)
 .rodata.str1.4
                0x0001c85c      0x1ff sdk_telemetry.o
                                0x204 (size before relaxing)
 *fill*         0x0001ca5b        0x1 00
 .rodata.str1.4
                0x0001ca5c        0xc buildInfoSetup.o
 .rodata.str1.4
                0x0001ca68       0x63 c:/asctec_arm_sdk/winarm/bin/../lib/gcc/arm-elf/4.1.1/../../../../arm-elf/lib/thumb/interwork\libc.a(vfprintf.o)
                                 0x64 (size before relaxing)
 *fill*         0x0001cacb        0x1 00
 .rodata.str1.4
                0x0001cacc       0x1e c:/asctec_arm_sdk/winarm/bin/../lib/gcc/arm-elf/4.1.1/../../../../arm-elf/lib/thumb/interwork\libc.a(wctomb_r.o)
                                 0x20 (size before relaxing)
 *fill*         0x0001caea        0x2 00
 .rodata.str1.4
                0x0001caec       0x10 c:/asctec_arm_sdk/winarm/bin/../lib/gcc/arm-elf/4.1.1/../../../../arm-elf/lib/thumb/interwork\libc.a(dtoa.o)
                                 0x14 (size before relaxing)
 .rodata.str1.4
                0x0001cafc        0x2 c:/asctec_arm_sdk/winarm/bin/../lib/gcc/arm-elf/4.1.1/../../../../arm-elf/lib/thumb/interwork\libc.a(impure.o)
                                  0x4 (size before relaxing)
 *fill*         0x0001cafe        0x2 00
 .rodata.str1.4
                0x0001cb00        0xb c:/asctec_arm_sdk/winarm/bin/../lib/gcc/arm-elf/4.1.1/../../../../arm-elf/lib/thumb/interwork\libc.a(locale.o)
                                 0x18 (size before relaxing)
 *fill*         0x0001cb0b        0x1 00
 .rodata.str1.4
                0x0001cb0c        0x6 c:/asctec_arm_sdk/winarm/bin/../lib/gcc/arm-elf/4.1.1/../../../../arm-elf/lib/thumb/interwork\libm.a(w_atan2.o)
                                  0x8 (size before relaxing)
 *fill*         0x0001cb12        0x2 00
 .rodata.str1.4
                0x0001cb14        0x4 c:/asctec_arm_sdk/winarm/bin/../lib/gcc/arm-elf/4.1.1/../../../../arm-elf/lib/thumb/interwork\libm.a(w_pow.o)
 .rodata.str1.4
                0x0001cb18        0x5 c:/asctec_arm_sdk/winarm/bin/../lib/gcc/arm-elf/4.1.1/../../../../arm-elf/lib/thumb/interwork\libm.a(w_sqrt.o)
                                  0x8 (size before relaxing)
 *fill*         0x0001cb1d        0x3 00
 .rodata.str1.4
                0x0001cb20        0x6 c:/asctec_arm_sdk/winarm/bin/../lib/gcc/arm-elf/4.1.1/../../../../arm-elf/lib/thumb/interwork\libm.a(wf_fmod.o)
                                  0x8 (size before relaxing)
 *fill*         0x0001cb26        0x2 00
 .rodata.str1.4
                0x0001cb28        0x8 c:/asctec_arm_sdk/winarm/bin/../lib/gcc/arm-elf/4.1.1/../../../../arm-elf/lib/thumb/interwork\libm.a(wf_pow.o)
 *(.gnu.linkonce.r.*)
                0x0001cb30                . = ALIGN (0x4)
                0x0001cb30                . = ALIGN (0x4)

.ctors          0x0001cb30        0x0
                0x0001cb30                PROVIDE (__ctors_start__, .)
 *(SORT(.ctors.*))
 *(.ctors)
                0x0001cb30                . = ALIGN (0x4)
                0x0001cb30                PROVIDE (__ctors_end__, .)
                0x0001cb30                . = ALIGN (0x4)

.dtors          0x0001cb30        0x0
                0x0001cb30                PROVIDE (__dtors_start__, .)
 *(SORT(.dtors.*))
 *(.dtors)
                0x0001cb30                . = ALIGN (0x4)
                0x0001cb30                PROVIDE (__dtors_end__, .)
                0x0001cb30                . = ALIGN (0x4)
                0x0001cb30                . = ALIGN (0x4)
                0x0001cb30                _etext = .
                0x0001cb30                PROVIDE (etext, .)

.data           0x40000000      0xdc4 load address 0x0001cb30
                0x40000000                _data = .
 *(.vectmapped)
                0x40000000                . = ALIGN (0x4)
 *(.fastrun)
                0x40000000                . = ALIGN (0x4)
                0x40000000                . = ALIGN (0x4)
 *(.data)
 .data          0x40000000        0x0 Common_WinARM/src/Startup.o
 .data          0x40000000        0x0 Common_WinARM/src/swi_handler.o
 .data          0x40000000        0x0 LL_HL_comm.o
 .data          0x40000000        0x0 mymath.o
 .data          0x40000000        0x0 gpsmath.o
 .data          0x40000000        0x0 sdk.o
 .data          0x40000000        0x0 sdk_telemetry.o
 .data          0x40000000        0xc buzzer.o
                0x40000004                ALARM_battery_warning_voltage_low
                0x40000002                ALARM_battery_warning_voltage_high
                0x40000000                buzzer_warnings
 .data          0x4000000c        0x0 lpc_aci_eeprom.o
 .data          0x4000000c       0x14 asctecCommIntfOnboard.o
                0x4000000c                aciVarPacketTransmissionRate
                0x4000001e                aciMagicCodePar
                0x40000012                entry_exist
                0x4000001c                aciMagicCodeCmd
                0x40000018                aciHeartBeatTimeout
                0x4000001a                aciMagicCodeVar
                0x40000014                aciEngineRate
 .data          0x40000020        0x0 buildInfoSetup.o
 .data          0x40000020        0x3 main.o
                0x40000020                DataOutputsPerSecond
                0x40000021                PTU_cam_option_4_version
 .data          0x40000023        0x0 hardware.o
 .data          0x40000023        0x0 system.o
 .data          0x40000023        0x7 uart.o
                0x40000027                stopstring
                0x40000024                startstring
                0x40000023                chksum_trigger
 .data          0x4000002a        0x0 syscalls.o
 .data          0x4000002a        0x0 i2c.o
 .data          0x4000002a        0x0 i2c1.o
 .data          0x4000002a        0x0 Common_WinARM/src/irq.o
 .data          0x4000002a        0x0 adc.o
 .data          0x4000002a        0x3 ssp.o
                0x4000002b                SSP_receiption_complete
                0x4000002c                data_sent_to_HL
                0x4000002a                data_sent_to_LL
 .data          0x4000002d        0x0 pelican_ptu.o
 .data          0x4000002d        0x0 jetiTelemetry.o
 .data          0x4000002d        0x0 LPC2k_ee.o
 *fill*         0x4000002d        0x3 00
 .data          0x40000030       0x1c lab.o
                0x40000034                kF
                0x40000048                g
                0x4000003c                l
                0x40000040                MAXPHI2
                0x40000038                kM
                0x40000044                MINPHI2
                0x40000030                mass
 .data          0x4000004c        0x0 Utilites.o
 .data          0x4000004c        0x0 c:/asctec_arm_sdk/winarm/bin/../lib/gcc/arm-elf/4.1.1/../../../../arm-elf/lib/thumb/interwork\libc.a(memcpy.o)
 .data          0x4000004c        0x0 c:/asctec_arm_sdk/winarm/bin/../lib/gcc/arm-elf/4.1.1/../../../../arm-elf/lib/thumb/interwork\libc.a(sprintf.o)
 .data          0x4000004c        0x0 c:/asctec_arm_sdk/winarm/bin/../lib/gcc/arm-elf/4.1.1/../../../../arm-elf/lib/thumb/interwork\libc.a(strcpy.o)
 .data          0x4000004c        0x0 c:/asctec_arm_sdk/winarm/bin/../lib/gcc/arm-elf/4.1.1/../../../../arm-elf/lib/thumb/interwork\libc.a(strlen.o)
 .data          0x4000004c        0x0 c:/asctec_arm_sdk/winarm/bin/../lib/gcc/arm-elf/4.1.1/../../../../arm-elf/lib/thumb/interwork\libc.a(vfprintf.o)
 .data          0x4000004c        0x0 c:/asctec_arm_sdk/winarm/bin/../lib/gcc/arm-elf/4.1.1/../../../../arm-elf/lib/thumb/interwork\libc.a(wcrtomb.o)
 .data          0x4000004c        0x0 c:/asctec_arm_sdk/winarm/bin/../lib/gcc/arm-elf/4.1.1/../../../../arm-elf/lib/thumb/interwork\libc.a(wcsrtombs.o)
 .data          0x4000004c        0x0 c:/asctec_arm_sdk/winarm/bin/../lib/gcc/arm-elf/4.1.1/../../../../arm-elf/lib/thumb/interwork\libc.a(wctomb_r.o)
 .data          0x4000004c        0x0 c:/asctec_arm_sdk/winarm/bin/../lib/gcc/arm-elf/4.1.1/../../../../arm-elf/lib/thumb/interwork\libc.a(wsetup.o)
 .data          0x4000004c        0x0 c:/asctec_arm_sdk/winarm/bin/../lib/gcc/arm-elf/4.1.1/../../../../arm-elf/lib/thumb/interwork\libc.a(dtoa.o)
 .data          0x4000004c        0x0 c:/asctec_arm_sdk/winarm/bin/../lib/gcc/arm-elf/4.1.1/../../../../arm-elf/lib/thumb/interwork\libc.a(fflush.o)
 .data          0x4000004c        0x0 c:/asctec_arm_sdk/winarm/bin/../lib/gcc/arm-elf/4.1.1/../../../../arm-elf/lib/thumb/interwork\libc.a(findfp.o)
 .data          0x4000004c        0x0 c:/asctec_arm_sdk/winarm/bin/../lib/gcc/arm-elf/4.1.1/../../../../arm-elf/lib/thumb/interwork\libc.a(freer.o)
 .data          0x4000004c        0x0 c:/asctec_arm_sdk/winarm/bin/../lib/gcc/arm-elf/4.1.1/../../../../arm-elf/lib/thumb/interwork\libc.a(fvwrite.o)
 .data          0x4000004c        0x0 c:/asctec_arm_sdk/winarm/bin/../lib/gcc/arm-elf/4.1.1/../../../../arm-elf/lib/thumb/interwork\libc.a(fwalk.o)
 .data          0x4000004c      0x404 c:/asctec_arm_sdk/winarm/bin/../lib/gcc/arm-elf/4.1.1/../../../../arm-elf/lib/thumb/interwork\libc.a(impure.o)
                0x4000004c                _impure_ptr
 .data          0x40000450       0x10 c:/asctec_arm_sdk/winarm/bin/../lib/gcc/arm-elf/4.1.1/../../../../arm-elf/lib/thumb/interwork\libc.a(locale.o)
                0x40000450                __mb_cur_max
                0x40000454                __lc_ctype
 .data          0x40000460        0x0 c:/asctec_arm_sdk/winarm/bin/../lib/gcc/arm-elf/4.1.1/../../../../arm-elf/lib/thumb/interwork\libc.a(makebuf.o)
 .data          0x40000460      0x410 c:/asctec_arm_sdk/winarm/bin/../lib/gcc/arm-elf/4.1.1/../../../../arm-elf/lib/thumb/interwork\libc.a(mallocr.o)
                0x4000086c                __malloc_sbrk_base
                0x40000460                __malloc_av_
                0x40000868                __malloc_trim_threshold
 .data          0x40000870        0x0 c:/asctec_arm_sdk/winarm/bin/../lib/gcc/arm-elf/4.1.1/../../../../arm-elf/lib/thumb/interwork\libc.a(memchr.o)
 .data          0x40000870        0x0 c:/asctec_arm_sdk/winarm/bin/../lib/gcc/arm-elf/4.1.1/../../../../arm-elf/lib/thumb/interwork\libc.a(memmove.o)
 .data          0x40000870        0x0 c:/asctec_arm_sdk/winarm/bin/../lib/gcc/arm-elf/4.1.1/../../../../arm-elf/lib/thumb/interwork\libc.a(memset.o)
 .data          0x40000870        0x0 c:/asctec_arm_sdk/winarm/bin/../lib/gcc/arm-elf/4.1.1/../../../../arm-elf/lib/thumb/interwork\libc.a(mlock.o)
 .data          0x40000870        0x0 c:/asctec_arm_sdk/winarm/bin/../lib/gcc/arm-elf/4.1.1/../../../../arm-elf/lib/thumb/interwork\libc.a(mprec.o)
 .data          0x40000870        0x0 c:/asctec_arm_sdk/winarm/bin/../lib/gcc/arm-elf/4.1.1/../../../../arm-elf/lib/thumb/interwork\libc.a(reallocr.o)
 .data          0x40000870        0x0 c:/asctec_arm_sdk/winarm/bin/../lib/gcc/arm-elf/4.1.1/../../../../arm-elf/lib/thumb/interwork\libc.a(s_isinf.o)
 .data          0x40000870        0x0 c:/asctec_arm_sdk/winarm/bin/../lib/gcc/arm-elf/4.1.1/../../../../arm-elf/lib/thumb/interwork\libc.a(s_isnan.o)
 .data          0x40000870        0x0 c:/asctec_arm_sdk/winarm/bin/../lib/gcc/arm-elf/4.1.1/../../../../arm-elf/lib/thumb/interwork\libc.a(stdio.o)
 .data          0x40000870        0x0 c:/asctec_arm_sdk/winarm/bin/../lib/gcc/arm-elf/4.1.1/../../../../arm-elf/lib/thumb/interwork\libc.a(strcmp.o)
 .data          0x40000870        0x0 c:/asctec_arm_sdk/winarm/bin/../lib/gcc/arm-elf/4.1.1/../../../../arm-elf/lib/thumb/interwork\libc.a(callocr.o)
 .data          0x40000870        0x0 c:/asctec_arm_sdk/winarm/bin/../lib/gcc/arm-elf/4.1.1/../../../../arm-elf/lib/thumb/interwork\libc.a(fclose.o)
 .data          0x40000870        0x0 c:/asctec_arm_sdk/winarm/bin/../lib/gcc/arm-elf/4.1.1/thumb/interwork\libgcc.a(_udivsi3.o)
 .data          0x40000870        0x0 c:/asctec_arm_sdk/winarm/bin/../lib/gcc/arm-elf/4.1.1/thumb/interwork\libgcc.a(_divsi3.o)
 .data          0x40000870        0x0 c:/asctec_arm_sdk/winarm/bin/../lib/gcc/arm-elf/4.1.1/thumb/interwork\libgcc.a(_umodsi3.o)
 .data          0x40000870        0x0 c:/asctec_arm_sdk/winarm/bin/../lib/gcc/arm-elf/4.1.1/thumb/interwork\libgcc.a(_modsi3.o)
 .data          0x40000870        0x0 c:/asctec_arm_sdk/winarm/bin/../lib/gcc/arm-elf/4.1.1/thumb/interwork\libgcc.a(_dvmd_tls.o)
 .data          0x40000870        0x0 c:/asctec_arm_sdk/winarm/bin/../lib/gcc/arm-elf/4.1.1/thumb/interwork\libgcc.a(_addsubdf3.o)
 .data          0x40000870        0x0 c:/asctec_arm_sdk/winarm/bin/../lib/gcc/arm-elf/4.1.1/thumb/interwork\libgcc.a(_muldivdf3.o)
 .data          0x40000870        0x0 c:/asctec_arm_sdk/winarm/bin/../lib/gcc/arm-elf/4.1.1/thumb/interwork\libgcc.a(_cmpdf2.o)
 .data          0x40000870        0x0 c:/asctec_arm_sdk/winarm/bin/../lib/gcc/arm-elf/4.1.1/thumb/interwork\libgcc.a(_fixdfsi.o)
 .data          0x40000870        0x0 c:/asctec_arm_sdk/winarm/bin/../lib/gcc/arm-elf/4.1.1/thumb/interwork\libgcc.a(_truncdfsf2.o)
 .data          0x40000870        0x0 c:/asctec_arm_sdk/winarm/bin/../lib/gcc/arm-elf/4.1.1/thumb/interwork\libgcc.a(_addsubsf3.o)
 .data          0x40000870        0x0 c:/asctec_arm_sdk/winarm/bin/../lib/gcc/arm-elf/4.1.1/thumb/interwork\libgcc.a(_muldivsf3.o)
 .data          0x40000870        0x0 c:/asctec_arm_sdk/winarm/bin/../lib/gcc/arm-elf/4.1.1/thumb/interwork\libgcc.a(_cmpsf2.o)
 .data          0x40000870        0x0 c:/asctec_arm_sdk/winarm/bin/../lib/gcc/arm-elf/4.1.1/thumb/interwork\libgcc.a(_fixunssfsi.o)
 .data          0x40000870      0x54c ./\libdeclination.a(declination.o)
 .data          0x40000dbc        0x8 ./\libublox.a(ublox.o)
                0x40000dbc                gpsLEDTrigger
 .data          0x40000dc4        0x0 c:/asctec_arm_sdk/winarm/bin/../lib/gcc/arm-elf/4.1.1/../../../../arm-elf/lib/thumb/interwork\libm.a(s_cos.o)
 .data          0x40000dc4        0x0 c:/asctec_arm_sdk/winarm/bin/../lib/gcc/arm-elf/4.1.1/../../../../arm-elf/lib/thumb/interwork\libm.a(s_sin.o)
 .data          0x40000dc4        0x0 c:/asctec_arm_sdk/winarm/bin/../lib/gcc/arm-elf/4.1.1/../../../../arm-elf/lib/thumb/interwork\libm.a(w_atan2.o)
 .data          0x40000dc4        0x0 c:/asctec_arm_sdk/winarm/bin/../lib/gcc/arm-elf/4.1.1/../../../../arm-elf/lib/thumb/interwork\libm.a(w_pow.o)
 .data          0x40000dc4        0x0 c:/asctec_arm_sdk/winarm/bin/../lib/gcc/arm-elf/4.1.1/../../../../arm-elf/lib/thumb/interwork\libm.a(w_sqrt.o)
 .data          0x40000dc4        0x0 c:/asctec_arm_sdk/winarm/bin/../lib/gcc/arm-elf/4.1.1/../../../../arm-elf/lib/thumb/interwork\libm.a(wf_fmod.o)
 .data          0x40000dc4        0x0 c:/asctec_arm_sdk/winarm/bin/../lib/gcc/arm-elf/4.1.1/../../../../arm-elf/lib/thumb/interwork\libm.a(wf_pow.o)
 .data          0x40000dc4        0x0 c:/asctec_arm_sdk/winarm/bin/../lib/gcc/arm-elf/4.1.1/../../../../arm-elf/lib/thumb/interwork\libm.a(e_atan2.o)
 .data          0x40000dc4        0x0 c:/asctec_arm_sdk/winarm/bin/../lib/gcc/arm-elf/4.1.1/../../../../arm-elf/lib/thumb/interwork\libm.a(e_pow.o)
 .data          0x40000dc4        0x0 c:/asctec_arm_sdk/winarm/bin/../lib/gcc/arm-elf/4.1.1/../../../../arm-elf/lib/thumb/interwork\libm.a(e_rem_pio2.o)
 .data          0x40000dc4        0x0 c:/asctec_arm_sdk/winarm/bin/../lib/gcc/arm-elf/4.1.1/../../../../arm-elf/lib/thumb/interwork\libm.a(e_sqrt.o)
 .data          0x40000dc4        0x0 c:/asctec_arm_sdk/winarm/bin/../lib/gcc/arm-elf/4.1.1/../../../../arm-elf/lib/thumb/interwork\libm.a(ef_fmod.o)
 .data          0x40000dc4        0x0 c:/asctec_arm_sdk/winarm/bin/../lib/gcc/arm-elf/4.1.1/../../../../arm-elf/lib/thumb/interwork\libm.a(ef_pow.o)
 .data          0x40000dc4        0x0 c:/asctec_arm_sdk/winarm/bin/../lib/gcc/arm-elf/4.1.1/../../../../arm-elf/lib/thumb/interwork\libm.a(ef_sqrt.o)
 .data          0x40000dc4        0x0 c:/asctec_arm_sdk/winarm/bin/../lib/gcc/arm-elf/4.1.1/../../../../arm-elf/lib/thumb/interwork\libm.a(k_cos.o)
 .data          0x40000dc4        0x0 c:/asctec_arm_sdk/winarm/bin/../lib/gcc/arm-elf/4.1.1/../../../../arm-elf/lib/thumb/interwork\libm.a(k_rem_pio2.o)
 .data          0x40000dc4        0x0 c:/asctec_arm_sdk/winarm/bin/../lib/gcc/arm-elf/4.1.1/../../../../arm-elf/lib/thumb/interwork\libm.a(k_sin.o)
 .data          0x40000dc4        0x0 c:/asctec_arm_sdk/winarm/bin/../lib/gcc/arm-elf/4.1.1/../../../../arm-elf/lib/thumb/interwork\libm.a(s_atan.o)
 .data          0x40000dc4        0x0 c:/asctec_arm_sdk/winarm/bin/../lib/gcc/arm-elf/4.1.1/../../../../arm-elf/lib/thumb/interwork\libm.a(s_fabs.o)
 .data          0x40000dc4        0x0 c:/asctec_arm_sdk/winarm/bin/../lib/gcc/arm-elf/4.1.1/../../../../arm-elf/lib/thumb/interwork\libm.a(s_finite.o)
 .data          0x40000dc4        0x0 c:/asctec_arm_sdk/winarm/bin/../lib/gcc/arm-elf/4.1.1/../../../../arm-elf/lib/thumb/interwork\libm.a(s_floor.o)
 .data          0x40000dc4        0x0 c:/asctec_arm_sdk/winarm/bin/../lib/gcc/arm-elf/4.1.1/../../../../arm-elf/lib/thumb/interwork\libm.a(s_lib_ver.o)
 .data          0x40000dc4        0x0 c:/asctec_arm_sdk/winarm/bin/../lib/gcc/arm-elf/4.1.1/../../../../arm-elf/lib/thumb/interwork\libm.a(s_matherr.o)
 .data          0x40000dc4        0x0 c:/asctec_arm_sdk/winarm/bin/../lib/gcc/arm-elf/4.1.1/../../../../arm-elf/lib/thumb/interwork\libm.a(s_rint.o)
 .data          0x40000dc4        0x0 c:/asctec_arm_sdk/winarm/bin/../lib/gcc/arm-elf/4.1.1/../../../../arm-elf/lib/thumb/interwork\libm.a(s_scalbn.o)
 .data          0x40000dc4        0x0 c:/asctec_arm_sdk/winarm/bin/../lib/gcc/arm-elf/4.1.1/../../../../arm-elf/lib/thumb/interwork\libm.a(sf_fabs.o)
 .data          0x40000dc4        0x0 c:/asctec_arm_sdk/winarm/bin/../lib/gcc/arm-elf/4.1.1/../../../../arm-elf/lib/thumb/interwork\libm.a(sf_finite.o)
 .data          0x40000dc4        0x0 c:/asctec_arm_sdk/winarm/bin/../lib/gcc/arm-elf/4.1.1/../../../../arm-elf/lib/thumb/interwork\libm.a(sf_isnan.o)
 .data          0x40000dc4        0x0 c:/asctec_arm_sdk/winarm/bin/../lib/gcc/arm-elf/4.1.1/../../../../arm-elf/lib/thumb/interwork\libm.a(sf_scalbn.o)
 .data          0x40000dc4        0x0 c:/asctec_arm_sdk/winarm/bin/../lib/gcc/arm-elf/4.1.1/../../../../arm-elf/lib/thumb/interwork\libm.a(s_copysign.o)
 .data          0x40000dc4        0x0 c:/asctec_arm_sdk/winarm/bin/../lib/gcc/arm-elf/4.1.1/../../../../arm-elf/lib/thumb/interwork\libm.a(sf_copysign.o)
 .data          0x40000dc4        0x0 c:/asctec_arm_sdk/winarm/bin/../lib/gcc/arm-elf/4.1.1/thumb/interwork\libgcc.a(_fixsfsi.o)
 .data          0x40000dc4        0x0 c:/asctec_arm_sdk/winarm/bin/../lib/gcc/arm-elf/4.1.1/../../../../arm-elf/lib/thumb/interwork\libg.a(errno.o)
 *(.data.*)
 *(.gnu.linkonce.d*)
                0x40000dc4                . = ALIGN (0x4)
                0x40000dc4                . = ALIGN (0x4)
                0x40000dc4                _edata = .
                0x40000dc4                PROVIDE (edata, .)

.bss            0x40000dc4     0x4900
                0x40000dc4                __bss_start = .
                0x40000dc4                __bss_start__ = .
 *(.bss)
 .bss           0x40000dc4        0x0 Common_WinARM/src/Startup.o
 .bss           0x40000dc4        0x0 Common_WinARM/src/swi_handler.o
 .bss           0x40000dc4       0x24 LL_HL_comm.o
                0x40000dce                transmitBuildInfoTrigger
                0x40000dca                wpCtrlNavStatus
                0x40000dc8                wpCtrlAckTrigger
                0x40000dc7                wpCtrlWpCmdUpdated
                0x40000dcc                wpCtrlDistToWp
                0x40000dc6                wpCtrlWpCmd
                0x40000dc4                SSP_ack
 .bss           0x40000de8        0x0 mymath.o
 .bss           0x40000de8        0x4 gpsmath.o
                0x40000de8                gpsDataOkTrigger
 .bss           0x40000dec       0x20 sdk.o
                0x40000ded                wpExampleActive
                0x40000dee                emergencyModeUpdate
                0x40000dec                wpExampleWpNr
 .bss           0x40000e0c        0x3 sdk_telemetry.o
 *fill*         0x40000e0f        0x1 00
 .bss           0x40000e10       0x14 buzzer.o
 .bss           0x40000e24        0x4 lpc_aci_eeprom.o
                0x40000e24                anz_param_saved
 .bss           0x40000e28       0x74 asctecCommIntfOnboard.o
                0x40000e74                aciHeartBeatCnt
                0x40000e80                aciAddDatatoFlashCallback
                0x40000e2c                aciListCmdCount
                0x40000e56                aciParPacketMagicCode
                0x40000e90                aciSendSingleCount
                0x40000e7c                aciReadWriteEndCallback
                0x40000e4a                aciCmdPacketMagicCode
                0x40000e84                aciReadParafromFlashCallback
                0x40000e76                aciInhibitPacketTransmission
                0x40000e28                aciListVarCount
                0x40000e4d                aciCmdPacketWithACK
                0x40000e72                aciTxRingBufferReadPtr
                0x40000e50                aciCmdPacketSendAck
                0x40000e92                aciSendSingleNextBufferCount
                0x40000e64                aciEngineRateCounter
                0x40000e53                aciCmdPacketReceived
                0x40000e78                aciReadWriteStartCallback
                0x40000e30                aciListParCount
                0x40000e38                aciVarPacketCurrentSize
                0x40000e62                aciParamSaveIt
                0x40000e59                aciParPacketSendAck
                0x40000e3e                aciVarPacketNumberOfVars
                0x40000e70                aciTxRingBufferWritePtr
                0x40000e34                aciVarPacketMagicCode
                0x40000e44                aciVarPacketUpdated
                0x40000e8c                aciWriteParatoFlashCallback
                0x40000e5c                aciParamPacketReceived
                0x40000e5f                aciParPacketRequest
                0x40000e88                aciSaveParaCallback
 .bss           0x40000e9c        0x0 buildInfoSetup.o
 .bss           0x40000e9c       0x28 main.o
                0x40000eac                GPS_timeout
                0x40000ea0                cnt
                0x40000ea4                mainloop_cnt
                0x40000eb5                fireflyLedEnabled
                0x40000e9c                int_cnt
                0x40000eb4                SYSTEM_initialized
                0x40000eb0                trigger_cnt
                0x40000ea8                mainloop_trigger
                0x40000eb6                mainloop_overflows
 .bss           0x40000ec4        0x0 hardware.o
 .bss           0x40000ec4        0x0 system.o
 .bss           0x40000ec4      0x32c uart.o
                0x40000ecb                UART1_syncstate
                0x40000ec9                baudrate1_change
                0x40000ec6                transmission_running
                0x40000ec8                trigger_transmission
                0x40000ed0                UART1_rxcount
                0x40000ec4                data_requested
                0x40000ec5                chksum_to_check
                0x40000ecc                UART_rxcount
                0x40000eca                UART_syncstate
                0x40000ec7                transmission1_running
                0x40000ed4                UART_CalibDoneFlag
 .bss           0x400011f0        0x4 syscalls.o
 .bss           0x400011f4       0x14 i2c.o
                0x40001200                RdIndex
                0x400011f4                I2CMasterState
                0x400011f8                I2CSlaveState
                0x400011fc                I2CCount
                0x40001204                WrIndex
 .bss           0x40001208       0x14 i2c1.o
                0x40001210                WrIndex1
                0x4000120c                I2C1Count
                0x40001208                I2C1MasterState
                0x40001214                lastI2c1Error
 .bss           0x4000121c        0x0 Common_WinARM/src/irq.o
 .bss           0x4000121c        0x8 adc.o
                0x40001220                ADC1IntDone
                0x4000121c                ADC0IntDone
 .bss           0x40001224        0x4 ssp.o
                0x40001224                SSP_trans_cnt
 .bss           0x40001228       0x24 pelican_ptu.o
                0x40001230                PTU_enable_plain_ch7_to_servo
                0x40001228                PTU_cam_angle_roll_offset
                0x4000122c                PTU_cam_angle_pitch_offset
 .bss           0x4000124c        0x5 jetiTelemetry.o
                0x4000124e                jetiTriggerTextSync
                0x40001250                jetiKey
                0x4000124d                jetiAlarmType
                0x4000124f                jetiKeyChanged
                0x4000124c                jetiAlarm
 .bss           0x40001251        0x0 LPC2k_ee.o
 .bss           0x40001251        0x0 lab.o
 .bss           0x40001251        0x0 Utilites.o
 .bss           0x40001251        0x0 c:/asctec_arm_sdk/winarm/bin/../lib/gcc/arm-elf/4.1.1/../../../../arm-elf/lib/thumb/interwork\libc.a(memcpy.o)
 .bss           0x40001251        0x0 c:/asctec_arm_sdk/winarm/bin/../lib/gcc/arm-elf/4.1.1/../../../../arm-elf/lib/thumb/interwork\libc.a(sprintf.o)
 .bss           0x40001251        0x0 c:/asctec_arm_sdk/winarm/bin/../lib/gcc/arm-elf/4.1.1/../../../../arm-elf/lib/thumb/interwork\libc.a(strcpy.o)
 .bss           0x40001251        0x0 c:/asctec_arm_sdk/winarm/bin/../lib/gcc/arm-elf/4.1.1/../../../../arm-elf/lib/thumb/interwork\libc.a(strlen.o)
 .bss           0x40001251        0x0 c:/asctec_arm_sdk/winarm/bin/../lib/gcc/arm-elf/4.1.1/../../../../arm-elf/lib/thumb/interwork\libc.a(vfprintf.o)
 .bss           0x40001251        0x0 c:/asctec_arm_sdk/winarm/bin/../lib/gcc/arm-elf/4.1.1/../../../../arm-elf/lib/thumb/interwork\libc.a(wcrtomb.o)
 .bss           0x40001251        0x0 c:/asctec_arm_sdk/winarm/bin/../lib/gcc/arm-elf/4.1.1/../../../../arm-elf/lib/thumb/interwork\libc.a(wcsrtombs.o)
 .bss           0x40001251        0x0 c:/asctec_arm_sdk/winarm/bin/../lib/gcc/arm-elf/4.1.1/../../../../arm-elf/lib/thumb/interwork\libc.a(wctomb_r.o)
 .bss           0x40001251        0x0 c:/asctec_arm_sdk/winarm/bin/../lib/gcc/arm-elf/4.1.1/../../../../arm-elf/lib/thumb/interwork\libc.a(wsetup.o)
 .bss           0x40001251        0x0 c:/asctec_arm_sdk/winarm/bin/../lib/gcc/arm-elf/4.1.1/../../../../arm-elf/lib/thumb/interwork\libc.a(dtoa.o)
 .bss           0x40001251        0x0 c:/asctec_arm_sdk/winarm/bin/../lib/gcc/arm-elf/4.1.1/../../../../arm-elf/lib/thumb/interwork\libc.a(fflush.o)
 .bss           0x40001251        0x0 c:/asctec_arm_sdk/winarm/bin/../lib/gcc/arm-elf/4.1.1/../../../../arm-elf/lib/thumb/interwork\libc.a(findfp.o)
 .bss           0x40001251        0x0 c:/asctec_arm_sdk/winarm/bin/../lib/gcc/arm-elf/4.1.1/../../../../arm-elf/lib/thumb/interwork\libc.a(freer.o)
 .bss           0x40001251        0x0 c:/asctec_arm_sdk/winarm/bin/../lib/gcc/arm-elf/4.1.1/../../../../arm-elf/lib/thumb/interwork\libc.a(fvwrite.o)
 .bss           0x40001251        0x0 c:/asctec_arm_sdk/winarm/bin/../lib/gcc/arm-elf/4.1.1/../../../../arm-elf/lib/thumb/interwork\libc.a(fwalk.o)
 .bss           0x40001251        0x0 c:/asctec_arm_sdk/winarm/bin/../lib/gcc/arm-elf/4.1.1/../../../../arm-elf/lib/thumb/interwork\libc.a(impure.o)
 *fill*         0x40001251        0x3 00
 .bss           0x40001254        0xc c:/asctec_arm_sdk/winarm/bin/../lib/gcc/arm-elf/4.1.1/../../../../arm-elf/lib/thumb/interwork\libc.a(locale.o)
                0x40001254                __nlocale_changed
                0x40001258                __mlocale_changed
                0x4000125c                _PathLocale
 .bss           0x40001260        0x0 c:/asctec_arm_sdk/winarm/bin/../lib/gcc/arm-elf/4.1.1/../../../../arm-elf/lib/thumb/interwork\libc.a(makebuf.o)
 .bss           0x40001260       0x34 c:/asctec_arm_sdk/winarm/bin/../lib/gcc/arm-elf/4.1.1/../../../../arm-elf/lib/thumb/interwork\libc.a(mallocr.o)
                0x40001260                __malloc_top_pad
                0x40001264                __malloc_max_sbrked_mem
                0x4000126c                __malloc_current_mallinfo
                0x40001268                __malloc_max_total_mem
 .bss           0x40001294        0x0 c:/asctec_arm_sdk/winarm/bin/../lib/gcc/arm-elf/4.1.1/../../../../arm-elf/lib/thumb/interwork\libc.a(memchr.o)
 .bss           0x40001294        0x0 c:/asctec_arm_sdk/winarm/bin/../lib/gcc/arm-elf/4.1.1/../../../../arm-elf/lib/thumb/interwork\libc.a(memmove.o)
 .bss           0x40001294        0x0 c:/asctec_arm_sdk/winarm/bin/../lib/gcc/arm-elf/4.1.1/../../../../arm-elf/lib/thumb/interwork\libc.a(memset.o)
 .bss           0x40001294        0x0 c:/asctec_arm_sdk/winarm/bin/../lib/gcc/arm-elf/4.1.1/../../../../arm-elf/lib/thumb/interwork\libc.a(mlock.o)
 .bss           0x40001294        0x0 c:/asctec_arm_sdk/winarm/bin/../lib/gcc/arm-elf/4.1.1/../../../../arm-elf/lib/thumb/interwork\libc.a(mprec.o)
 .bss           0x40001294        0x0 c:/asctec_arm_sdk/winarm/bin/../lib/gcc/arm-elf/4.1.1/../../../../arm-elf/lib/thumb/interwork\libc.a(reallocr.o)
 .bss           0x40001294        0x0 c:/asctec_arm_sdk/winarm/bin/../lib/gcc/arm-elf/4.1.1/../../../../arm-elf/lib/thumb/interwork\libc.a(s_isinf.o)
 .bss           0x40001294        0x0 c:/asctec_arm_sdk/winarm/bin/../lib/gcc/arm-elf/4.1.1/../../../../arm-elf/lib/thumb/interwork\libc.a(s_isnan.o)
 .bss           0x40001294        0x0 c:/asctec_arm_sdk/winarm/bin/../lib/gcc/arm-elf/4.1.1/../../../../arm-elf/lib/thumb/interwork\libc.a(stdio.o)
 .bss           0x40001294        0x0 c:/asctec_arm_sdk/winarm/bin/../lib/gcc/arm-elf/4.1.1/../../../../arm-elf/lib/thumb/interwork\libc.a(strcmp.o)
 .bss           0x40001294        0x0 c:/asctec_arm_sdk/winarm/bin/../lib/gcc/arm-elf/4.1.1/../../../../arm-elf/lib/thumb/interwork\libc.a(callocr.o)
 .bss           0x40001294        0x0 c:/asctec_arm_sdk/winarm/bin/../lib/gcc/arm-elf/4.1.1/../../../../arm-elf/lib/thumb/interwork\libc.a(fclose.o)
 .bss           0x40001294        0x0 c:/asctec_arm_sdk/winarm/bin/../lib/gcc/arm-elf/4.1.1/thumb/interwork\libgcc.a(_udivsi3.o)
 .bss           0x40001294        0x0 c:/asctec_arm_sdk/winarm/bin/../lib/gcc/arm-elf/4.1.1/thumb/interwork\libgcc.a(_divsi3.o)
 .bss           0x40001294        0x0 c:/asctec_arm_sdk/winarm/bin/../lib/gcc/arm-elf/4.1.1/thumb/interwork\libgcc.a(_umodsi3.o)
 .bss           0x40001294        0x0 c:/asctec_arm_sdk/winarm/bin/../lib/gcc/arm-elf/4.1.1/thumb/interwork\libgcc.a(_modsi3.o)
 .bss           0x40001294        0x0 c:/asctec_arm_sdk/winarm/bin/../lib/gcc/arm-elf/4.1.1/thumb/interwork\libgcc.a(_dvmd_tls.o)
 .bss           0x40001294        0x0 c:/asctec_arm_sdk/winarm/bin/../lib/gcc/arm-elf/4.1.1/thumb/interwork\libgcc.a(_addsubdf3.o)
 .bss           0x40001294        0x0 c:/asctec_arm_sdk/winarm/bin/../lib/gcc/arm-elf/4.1.1/thumb/interwork\libgcc.a(_muldivdf3.o)
 .bss           0x40001294        0x0 c:/asctec_arm_sdk/winarm/bin/../lib/gcc/arm-elf/4.1.1/thumb/interwork\libgcc.a(_cmpdf2.o)
 .bss           0x40001294        0x0 c:/asctec_arm_sdk/winarm/bin/../lib/gcc/arm-elf/4.1.1/thumb/interwork\libgcc.a(_fixdfsi.o)
 .bss           0x40001294        0x0 c:/asctec_arm_sdk/winarm/bin/../lib/gcc/arm-elf/4.1.1/thumb/interwork\libgcc.a(_truncdfsf2.o)
 .bss           0x40001294        0x0 c:/asctec_arm_sdk/winarm/bin/../lib/gcc/arm-elf/4.1.1/thumb/interwork\libgcc.a(_addsubsf3.o)
 .bss           0x40001294        0x0 c:/asctec_arm_sdk/winarm/bin/../lib/gcc/arm-elf/4.1.1/thumb/interwork\libgcc.a(_muldivsf3.o)
 .bss           0x40001294        0x0 c:/asctec_arm_sdk/winarm/bin/../lib/gcc/arm-elf/4.1.1/thumb/interwork\libgcc.a(_cmpsf2.o)
 .bss           0x40001294        0x0 c:/asctec_arm_sdk/winarm/bin/../lib/gcc/arm-elf/4.1.1/thumb/interwork\libgcc.a(_fixunssfsi.o)
 .bss           0x40001294      0xcc4 ./\libdeclination.a(declination.o)
                0x40001294                estimatedDeclination
                0x40001298                estimatedInclination
                0x4000129c                declinationAvailable
 .bss           0x40001f58       0x28 ./\libublox.a(ublox.o)
                0x40001f64                urVersionCheck
                0x40001f62                urAckId
                0x40001f66                urMsgCnt
                0x40001f58                urTimeCnt
                0x40001f68                ubloxVersion
                0x40001f60                urAckReceived
                0x40001f63                urConfigMessageReceived
                0x40001f5c                GPS_raw_data_size
                0x40001f61                urAckClass
 .bss           0x40001f80        0x0 c:/asctec_arm_sdk/winarm/bin/../lib/gcc/arm-elf/4.1.1/../../../../arm-elf/lib/thumb/interwork\libm.a(s_cos.o)
 .bss           0x40001f80        0x0 c:/asctec_arm_sdk/winarm/bin/../lib/gcc/arm-elf/4.1.1/../../../../arm-elf/lib/thumb/interwork\libm.a(s_sin.o)
 .bss           0x40001f80        0x0 c:/asctec_arm_sdk/winarm/bin/../lib/gcc/arm-elf/4.1.1/../../../../arm-elf/lib/thumb/interwork\libm.a(w_atan2.o)
 .bss           0x40001f80        0x0 c:/asctec_arm_sdk/winarm/bin/../lib/gcc/arm-elf/4.1.1/../../../../arm-elf/lib/thumb/interwork\libm.a(w_pow.o)
 .bss           0x40001f80        0x0 c:/asctec_arm_sdk/winarm/bin/../lib/gcc/arm-elf/4.1.1/../../../../arm-elf/lib/thumb/interwork\libm.a(w_sqrt.o)
 .bss           0x40001f80        0x0 c:/asctec_arm_sdk/winarm/bin/../lib/gcc/arm-elf/4.1.1/../../../../arm-elf/lib/thumb/interwork\libm.a(wf_fmod.o)
 .bss           0x40001f80        0x0 c:/asctec_arm_sdk/winarm/bin/../lib/gcc/arm-elf/4.1.1/../../../../arm-elf/lib/thumb/interwork\libm.a(wf_pow.o)
 .bss           0x40001f80        0x0 c:/asctec_arm_sdk/winarm/bin/../lib/gcc/arm-elf/4.1.1/../../../../arm-elf/lib/thumb/interwork\libm.a(e_atan2.o)
 .bss           0x40001f80        0x0 c:/asctec_arm_sdk/winarm/bin/../lib/gcc/arm-elf/4.1.1/../../../../arm-elf/lib/thumb/interwork\libm.a(e_pow.o)
 .bss           0x40001f80        0x0 c:/asctec_arm_sdk/winarm/bin/../lib/gcc/arm-elf/4.1.1/../../../../arm-elf/lib/thumb/interwork\libm.a(e_rem_pio2.o)
 .bss           0x40001f80        0x0 c:/asctec_arm_sdk/winarm/bin/../lib/gcc/arm-elf/4.1.1/../../../../arm-elf/lib/thumb/interwork\libm.a(e_sqrt.o)
 .bss           0x40001f80        0x0 c:/asctec_arm_sdk/winarm/bin/../lib/gcc/arm-elf/4.1.1/../../../../arm-elf/lib/thumb/interwork\libm.a(ef_fmod.o)
 .bss           0x40001f80        0x0 c:/asctec_arm_sdk/winarm/bin/../lib/gcc/arm-elf/4.1.1/../../../../arm-elf/lib/thumb/interwork\libm.a(ef_pow.o)
 .bss           0x40001f80        0x0 c:/asctec_arm_sdk/winarm/bin/../lib/gcc/arm-elf/4.1.1/../../../../arm-elf/lib/thumb/interwork\libm.a(ef_sqrt.o)
 .bss           0x40001f80        0x0 c:/asctec_arm_sdk/winarm/bin/../lib/gcc/arm-elf/4.1.1/../../../../arm-elf/lib/thumb/interwork\libm.a(k_cos.o)
 .bss           0x40001f80        0x0 c:/asctec_arm_sdk/winarm/bin/../lib/gcc/arm-elf/4.1.1/../../../../arm-elf/lib/thumb/interwork\libm.a(k_rem_pio2.o)
 .bss           0x40001f80        0x0 c:/asctec_arm_sdk/winarm/bin/../lib/gcc/arm-elf/4.1.1/../../../../arm-elf/lib/thumb/interwork\libm.a(k_sin.o)
 .bss           0x40001f80        0x0 c:/asctec_arm_sdk/winarm/bin/../lib/gcc/arm-elf/4.1.1/../../../../arm-elf/lib/thumb/interwork\libm.a(s_atan.o)
 .bss           0x40001f80        0x0 c:/asctec_arm_sdk/winarm/bin/../lib/gcc/arm-elf/4.1.1/../../../../arm-elf/lib/thumb/interwork\libm.a(s_fabs.o)
 .bss           0x40001f80        0x0 c:/asctec_arm_sdk/winarm/bin/../lib/gcc/arm-elf/4.1.1/../../../../arm-elf/lib/thumb/interwork\libm.a(s_finite.o)
 .bss           0x40001f80        0x0 c:/asctec_arm_sdk/winarm/bin/../lib/gcc/arm-elf/4.1.1/../../../../arm-elf/lib/thumb/interwork\libm.a(s_floor.o)
 .bss           0x40001f80        0x0 c:/asctec_arm_sdk/winarm/bin/../lib/gcc/arm-elf/4.1.1/../../../../arm-elf/lib/thumb/interwork\libm.a(s_lib_ver.o)
 .bss           0x40001f80        0x0 c:/asctec_arm_sdk/winarm/bin/../lib/gcc/arm-elf/4.1.1/../../../../arm-elf/lib/thumb/interwork\libm.a(s_matherr.o)
 .bss           0x40001f80        0x0 c:/asctec_arm_sdk/winarm/bin/../lib/gcc/arm-elf/4.1.1/../../../../arm-elf/lib/thumb/interwork\libm.a(s_rint.o)
 .bss           0x40001f80        0x0 c:/asctec_arm_sdk/winarm/bin/../lib/gcc/arm-elf/4.1.1/../../../../arm-elf/lib/thumb/interwork\libm.a(s_scalbn.o)
 .bss           0x40001f80        0x0 c:/asctec_arm_sdk/winarm/bin/../lib/gcc/arm-elf/4.1.1/../../../../arm-elf/lib/thumb/interwork\libm.a(sf_fabs.o)
 .bss           0x40001f80        0x0 c:/asctec_arm_sdk/winarm/bin/../lib/gcc/arm-elf/4.1.1/../../../../arm-elf/lib/thumb/interwork\libm.a(sf_finite.o)
 .bss           0x40001f80        0x0 c:/asctec_arm_sdk/winarm/bin/../lib/gcc/arm-elf/4.1.1/../../../../arm-elf/lib/thumb/interwork\libm.a(sf_isnan.o)
 .bss           0x40001f80        0x0 c:/asctec_arm_sdk/winarm/bin/../lib/gcc/arm-elf/4.1.1/../../../../arm-elf/lib/thumb/interwork\libm.a(sf_scalbn.o)
 .bss           0x40001f80        0x0 c:/asctec_arm_sdk/winarm/bin/../lib/gcc/arm-elf/4.1.1/../../../../arm-elf/lib/thumb/interwork\libm.a(s_copysign.o)
 .bss           0x40001f80        0x0 c:/asctec_arm_sdk/winarm/bin/../lib/gcc/arm-elf/4.1.1/../../../../arm-elf/lib/thumb/interwork\libm.a(sf_copysign.o)
 .bss           0x40001f80        0x0 c:/asctec_arm_sdk/winarm/bin/../lib/gcc/arm-elf/4.1.1/thumb/interwork\libgcc.a(_fixsfsi.o)
 .bss           0x40001f80        0x0 c:/asctec_arm_sdk/winarm/bin/../lib/gcc/arm-elf/4.1.1/../../../../arm-elf/lib/thumb/interwork\libg.a(errno.o)
 *(.gnu.linkonce.b*)
 *(COMMON)
 COMMON         0x40001f80       0xb0 LL_HL_comm.o
                0x40001f80                LL_1khz_attitude_data
                0x40001fdc                LL_1khz_control_input
                0x40002014                wpToLL
 COMMON         0x40002030       0x58 gpsmath.o
                0x40002030                GPS_Data
                0x4000205c                gps_data_temp
 COMMON         0x40002088      0x10d sdk.o
                0x40002088                WO_CTRL_Input
                0x40002094                WO_Direct_Motor_Control
                0x40002098                WO_Direct_Individual_Motor_Control
                0x400020a4                WO_SDK
                0x400020a8                RO_RC_Data
                0x400020b8                imusensor
                0x400020fc                RO_ALL_Data
                0x40002194                emergencyMode
 *fill*         0x40002195        0x3 00
 COMMON         0x40002198      0x100 lpc_aci_eeprom.o
                0x40002198                content
 COMMON         0x40002298     0x2b42 asctecCommIntfOnboard.o
                0x40002298                aciSendSingleId
                0x40002324                aciParPacketContentBuffer
                0x400027d4                aciSendSingleBufferCnt
                0x40002860                aciListPar
                0x40002c16                aciParPacketSelect
                0x40002d96                aciSendSingleBuffer
                0x40002fc6                aciParPacketSelectLength
                0x40002fc9                aciCmdPacketSelectLength
                0x40002fcc                aciCmdPacketContentBuffer
                0x4000347c                aciVarPacketContentBuffer
                0x40003b0c                aciCmdPacketSelect
                0x40003c8c                aciTxRingBuffer
                0x40003d2c                aciVarPacketTypeList
                0x40003dec                aciListVar
                0x4000431e                aciParPacketContentBufferValid
                0x40004322                aciSendSingleStatus
                0x400043b0                aciVarPacketPtrList
                0x400046b0                aciParPacketContentBufferLength
                0x400046b6                aciCmdPacketContentBufferInvalidCnt
                0x400046ba                aciVarPacketContentBufferLength
                0x400046c0                aciListCmd
                0x40004a76                aciSendSingleVarType
                0x40004abc                aciRxDataCnt
                0x40004ac0                aciStartTxCallback
                0x40004ac4                aciRxDataBuffer
                0x40004c44                aciParPacketContentBufferInvalidCnt
                0x40004c47                aciCmdPacketContentBufferValid
                0x40004c4c                aciReadDatafromFlashCallback
                0x40004c50                aciCmdPacketContentBufferLength
                0x40004c56                aciVarPacketSelectLength
                0x40004c5a                aciVarPacketSelect
 COMMON         0x40004dda       0x53 buildInfoSetup.o
                0x40004dda                buildInfo
 *fill*         0x40004e2d        0x3 00
 COMMON         0x40004e30       0xdc main.o
                0x40004e30                GPS_Time
                0x40004e38                IMU_CalcData
                0x40004e94                HL_Status
                0x40004eac                uart_cnt
                0x40004eb0                IMU_CalcData_tmp
 COMMON         0x40004f0c       0x20 uart.o
                0x40004f0c                UART_rxptr
                0x40004f10                send_buffer
                0x40004f20                current_chksum
                0x40004f22                packets
                0x40004f24                tx_buff
                0x40004f28                UART1_rxptr
 COMMON         0x40004f2c       0x50 i2c.o
                0x40004f2c                I2CReadLength
                0x40004f30                I2CSlaveBuffer
                0x40004f50                I2CMode
                0x40004f54                I2CMasterBuffer
                0x40004f74                I2CCmd
                0x40004f78                I2CWriteLength
 COMMON         0x40004f7c       0x24 i2c1.o
                0x40004f7c                I2C1WriteLength
                0x40004f80                I2C1MasterBuffer
 COMMON         0x40004fa0       0x60 adc.o
                0x40004fa0                ADC0Value
                0x40004fc0                ADC1Value
                0x40004fe0                adcChannelValues
 COMMON         0x40005000      0x10c ssp.o
                0x40005000                CurrentRxIndex
                0x40005004                SPIWR_num_bytes
                0x40005008                CurrentTxIndex
                0x4000500c                SPIWRData
                0x4000508c                SPIRDData
 COMMON         0x4000510c       0x2c pelican_ptu.o
                0x4000510c                CAMERA_Commands
                0x40005118                CAMERA_ptu
 COMMON         0x40005138      0x174 jetiTelemetry.o
                0x40005138                jetiDisplayText
                0x40005158                jetiValues
                0x400052a2                jetiName
 COMMON         0x400052ac        0x4 LPC2k_ee.o
                0x400052ac                iap_entry
 COMMON         0x400052b0       0xbc lab.o
                0x400052b0                cnt_u
                0x400052c0                yaw_desired
                0x400052c4                pitch_desired
                0x400052c8                roll_desired
                0x400052cc                z
                0x400052d8                x_nom
                0x400052e8                omega_cmd2
                0x400052f8                omega_cmd
                0x40005308                dt
                0x4000530c                Winv
                0x4000534c                u
                0x4000535c                cmd
 COMMON         0x4000536c      0x356 ./\libublox.a(ublox.o)
                0x4000536c                GPS_RawBuffer
                0x400054ec                urRecData
                0x400055ec                satInfo
                0x400056ac                urConfigCnt
                0x400056b0                urCfgIdList
                0x400056b4                gpsHardwareStatus
                0x400056c4                . = ALIGN (0x4)
 *fill*         0x400056c2        0x2 00
                0x400056c4                . = ALIGN (0x4)
                0x400056c4                __bss_end__ = .
                0x400056c4                PROVIDE (__bss_end, .)

.stack          0x40005700     0x1980
 *(.stack)
 .stack         0x40005700     0x1980 Common_WinARM/src/Startup.o
                0x40007080                PROVIDE (_stack, .)
                0x40007080                . = ALIGN (0x4)
                0x40007080                _end = .
                0x40007080                PROVIDE (end, .)

.stab
 *(.stab)

.stabstr
 *(.stabstr)

.stab.excl
 *(.stab.excl)

.stab.exclstr
 *(.stab.exclstr)

.stab.index
 *(.stab.index)

.stab.indexstr
 *(.stab.indexstr)

.comment        0x00000000      0x963
 *(.comment)
 .comment       0x00000000       0x1b LL_HL_comm.o
 .comment       0x0000001b       0x1b mymath.o
 .comment       0x00000036       0x1b gpsmath.o
 .comment       0x00000051       0x1b sdk.o
 .comment       0x0000006c       0x1b sdk_telemetry.o
 .comment       0x00000087       0x1b buzzer.o
 .comment       0x000000a2       0x1b lpc_aci_eeprom.o
 .comment       0x000000bd       0x1b asctecCommIntfOnboard.o
 .comment       0x000000d8       0x1b buildInfoSetup.o
 .comment       0x000000f3       0x1b main.o
 .comment       0x0000010e       0x1b hardware.o
 .comment       0x00000129       0x1b system.o
 .comment       0x00000144       0x1b uart.o
 .comment       0x0000015f       0x1b syscalls.o
 .comment       0x0000017a       0x1b i2c.o
 .comment       0x00000195       0x1b i2c1.o
 .comment       0x000001b0       0x1b Common_WinARM/src/irq.o
 .comment       0x000001cb       0x1b adc.o
 .comment       0x000001e6       0x1b ssp.o
 .comment       0x00000201       0x1b pelican_ptu.o
 .comment       0x0000021c       0x1b jetiTelemetry.o
 .comment       0x00000237       0x1b LPC2k_ee.o
 .comment       0x00000252       0x1b lab.o
 .comment       0x0000026d       0x1b Utilites.o
 .comment       0x00000288       0x1b c:/asctec_arm_sdk/winarm/bin/../lib/gcc/arm-elf/4.1.1/../../../../arm-elf/lib/thumb/interwork\libc.a(memcpy.o)
 .comment       0x000002a3       0x1b c:/asctec_arm_sdk/winarm/bin/../lib/gcc/arm-elf/4.1.1/../../../../arm-elf/lib/thumb/interwork\libc.a(sprintf.o)
 .comment       0x000002be       0x1b c:/asctec_arm_sdk/winarm/bin/../lib/gcc/arm-elf/4.1.1/../../../../arm-elf/lib/thumb/interwork\libc.a(strcpy.o)
 .comment       0x000002d9       0x1b c:/asctec_arm_sdk/winarm/bin/../lib/gcc/arm-elf/4.1.1/../../../../arm-elf/lib/thumb/interwork\libc.a(strlen.o)
 .comment       0x000002f4       0x1b c:/asctec_arm_sdk/winarm/bin/../lib/gcc/arm-elf/4.1.1/../../../../arm-elf/lib/thumb/interwork\libc.a(vfprintf.o)
 .comment       0x0000030f       0x1b c:/asctec_arm_sdk/winarm/bin/../lib/gcc/arm-elf/4.1.1/../../../../arm-elf/lib/thumb/interwork\libc.a(wcrtomb.o)
 .comment       0x0000032a       0x1b c:/asctec_arm_sdk/winarm/bin/../lib/gcc/arm-elf/4.1.1/../../../../arm-elf/lib/thumb/interwork\libc.a(wcsrtombs.o)
 .comment       0x00000345       0x1b c:/asctec_arm_sdk/winarm/bin/../lib/gcc/arm-elf/4.1.1/../../../../arm-elf/lib/thumb/interwork\libc.a(wctomb_r.o)
 .comment       0x00000360       0x1b c:/asctec_arm_sdk/winarm/bin/../lib/gcc/arm-elf/4.1.1/../../../../arm-elf/lib/thumb/interwork\libc.a(wsetup.o)
 .comment       0x0000037b       0x1b c:/asctec_arm_sdk/winarm/bin/../lib/gcc/arm-elf/4.1.1/../../../../arm-elf/lib/thumb/interwork\libc.a(dtoa.o)
 .comment       0x00000396       0x1b c:/asctec_arm_sdk/winarm/bin/../lib/gcc/arm-elf/4.1.1/../../../../arm-elf/lib/thumb/interwork\libc.a(fflush.o)
 .comment       0x000003b1       0x1b c:/asctec_arm_sdk/winarm/bin/../lib/gcc/arm-elf/4.1.1/../../../../arm-elf/lib/thumb/interwork\libc.a(findfp.o)
 .comment       0x000003cc       0x1b c:/asctec_arm_sdk/winarm/bin/../lib/gcc/arm-elf/4.1.1/../../../../arm-elf/lib/thumb/interwork\libc.a(freer.o)
 .comment       0x000003e7       0x1b c:/asctec_arm_sdk/winarm/bin/../lib/gcc/arm-elf/4.1.1/../../../../arm-elf/lib/thumb/interwork\libc.a(fvwrite.o)
 .comment       0x00000402       0x1b c:/asctec_arm_sdk/winarm/bin/../lib/gcc/arm-elf/4.1.1/../../../../arm-elf/lib/thumb/interwork\libc.a(fwalk.o)
 .comment       0x0000041d       0x1b c:/asctec_arm_sdk/winarm/bin/../lib/gcc/arm-elf/4.1.1/../../../../arm-elf/lib/thumb/interwork\libc.a(impure.o)
 .comment       0x00000438       0x1b c:/asctec_arm_sdk/winarm/bin/../lib/gcc/arm-elf/4.1.1/../../../../arm-elf/lib/thumb/interwork\libc.a(locale.o)
 .comment       0x00000453       0x1b c:/asctec_arm_sdk/winarm/bin/../lib/gcc/arm-elf/4.1.1/../../../../arm-elf/lib/thumb/interwork\libc.a(makebuf.o)
 .comment       0x0000046e       0x1b c:/asctec_arm_sdk/winarm/bin/../lib/gcc/arm-elf/4.1.1/../../../../arm-elf/lib/thumb/interwork\libc.a(mallocr.o)
 .comment       0x00000489       0x1b c:/asctec_arm_sdk/winarm/bin/../lib/gcc/arm-elf/4.1.1/../../../../arm-elf/lib/thumb/interwork\libc.a(memchr.o)
 .comment       0x000004a4       0x1b c:/asctec_arm_sdk/winarm/bin/../lib/gcc/arm-elf/4.1.1/../../../../arm-elf/lib/thumb/interwork\libc.a(memmove.o)
 .comment       0x000004bf       0x1b c:/asctec_arm_sdk/winarm/bin/../lib/gcc/arm-elf/4.1.1/../../../../arm-elf/lib/thumb/interwork\libc.a(memset.o)
 .comment       0x000004da       0x1b c:/asctec_arm_sdk/winarm/bin/../lib/gcc/arm-elf/4.1.1/../../../../arm-elf/lib/thumb/interwork\libc.a(mlock.o)
 .comment       0x000004f5       0x1b c:/asctec_arm_sdk/winarm/bin/../lib/gcc/arm-elf/4.1.1/../../../../arm-elf/lib/thumb/interwork\libc.a(mprec.o)
 .comment       0x00000510       0x1b c:/asctec_arm_sdk/winarm/bin/../lib/gcc/arm-elf/4.1.1/../../../../arm-elf/lib/thumb/interwork\libc.a(reallocr.o)
 .comment       0x0000052b       0x1b c:/asctec_arm_sdk/winarm/bin/../lib/gcc/arm-elf/4.1.1/../../../../arm-elf/lib/thumb/interwork\libc.a(s_isinf.o)
 .comment       0x00000546       0x1b c:/asctec_arm_sdk/winarm/bin/../lib/gcc/arm-elf/4.1.1/../../../../arm-elf/lib/thumb/interwork\libc.a(s_isnan.o)
 .comment       0x00000561       0x1b c:/asctec_arm_sdk/winarm/bin/../lib/gcc/arm-elf/4.1.1/../../../../arm-elf/lib/thumb/interwork\libc.a(stdio.o)
 .comment       0x0000057c       0x1b c:/asctec_arm_sdk/winarm/bin/../lib/gcc/arm-elf/4.1.1/../../../../arm-elf/lib/thumb/interwork\libc.a(strcmp.o)
 .comment       0x00000597       0x1b c:/asctec_arm_sdk/winarm/bin/../lib/gcc/arm-elf/4.1.1/../../../../arm-elf/lib/thumb/interwork\libc.a(callocr.o)
 .comment       0x000005b2       0x1b c:/asctec_arm_sdk/winarm/bin/../lib/gcc/arm-elf/4.1.1/../../../../arm-elf/lib/thumb/interwork\libc.a(fclose.o)
 .comment       0x000005cd       0x1b ./\libdeclination.a(declination.o)
 .comment       0x000005e8       0x1b ./\libublox.a(ublox.o)
 .comment       0x00000603       0x1b c:/asctec_arm_sdk/winarm/bin/../lib/gcc/arm-elf/4.1.1/../../../../arm-elf/lib/thumb/interwork\libm.a(s_cos.o)
 .comment       0x0000061e       0x1b c:/asctec_arm_sdk/winarm/bin/../lib/gcc/arm-elf/4.1.1/../../../../arm-elf/lib/thumb/interwork\libm.a(s_sin.o)
 .comment       0x00000639       0x1b c:/asctec_arm_sdk/winarm/bin/../lib/gcc/arm-elf/4.1.1/../../../../arm-elf/lib/thumb/interwork\libm.a(w_atan2.o)
 .comment       0x00000654       0x1b c:/asctec_arm_sdk/winarm/bin/../lib/gcc/arm-elf/4.1.1/../../../../arm-elf/lib/thumb/interwork\libm.a(w_pow.o)
 .comment       0x0000066f       0x1b c:/asctec_arm_sdk/winarm/bin/../lib/gcc/arm-elf/4.1.1/../../../../arm-elf/lib/thumb/interwork\libm.a(w_sqrt.o)
 .comment       0x0000068a       0x1b c:/asctec_arm_sdk/winarm/bin/../lib/gcc/arm-elf/4.1.1/../../../../arm-elf/lib/thumb/interwork\libm.a(wf_fmod.o)
 .comment       0x000006a5       0x1b c:/asctec_arm_sdk/winarm/bin/../lib/gcc/arm-elf/4.1.1/../../../../arm-elf/lib/thumb/interwork\libm.a(wf_pow.o)
 .comment       0x000006c0       0x1b c:/asctec_arm_sdk/winarm/bin/../lib/gcc/arm-elf/4.1.1/../../../../arm-elf/lib/thumb/interwork\libm.a(e_atan2.o)
 .comment       0x000006db       0x1b c:/asctec_arm_sdk/winarm/bin/../lib/gcc/arm-elf/4.1.1/../../../../arm-elf/lib/thumb/interwork\libm.a(e_pow.o)
 .comment       0x000006f6       0x1b c:/asctec_arm_sdk/winarm/bin/../lib/gcc/arm-elf/4.1.1/../../../../arm-elf/lib/thumb/interwork\libm.a(e_rem_pio2.o)
 .comment       0x00000711       0x1b c:/asctec_arm_sdk/winarm/bin/../lib/gcc/arm-elf/4.1.1/../../../../arm-elf/lib/thumb/interwork\libm.a(e_sqrt.o)
 .comment       0x0000072c       0x1b c:/asctec_arm_sdk/winarm/bin/../lib/gcc/arm-elf/4.1.1/../../../../arm-elf/lib/thumb/interwork\libm.a(ef_fmod.o)
 .comment       0x00000747       0x1b c:/asctec_arm_sdk/winarm/bin/../lib/gcc/arm-elf/4.1.1/../../../../arm-elf/lib/thumb/interwork\libm.a(ef_pow.o)
 .comment       0x00000762       0x1b c:/asctec_arm_sdk/winarm/bin/../lib/gcc/arm-elf/4.1.1/../../../../arm-elf/lib/thumb/interwork\libm.a(ef_sqrt.o)
 .comment       0x0000077d       0x1b c:/asctec_arm_sdk/winarm/bin/../lib/gcc/arm-elf/4.1.1/../../../../arm-elf/lib/thumb/interwork\libm.a(k_cos.o)
 .comment       0x00000798       0x1b c:/asctec_arm_sdk/winarm/bin/../lib/gcc/arm-elf/4.1.1/../../../../arm-elf/lib/thumb/interwork\libm.a(k_rem_pio2.o)
 .comment       0x000007b3       0x1b c:/asctec_arm_sdk/winarm/bin/../lib/gcc/arm-elf/4.1.1/../../../../arm-elf/lib/thumb/interwork\libm.a(k_sin.o)
 .comment       0x000007ce       0x1b c:/asctec_arm_sdk/winarm/bin/../lib/gcc/arm-elf/4.1.1/../../../../arm-elf/lib/thumb/interwork\libm.a(s_atan.o)
 .comment       0x000007e9       0x1b c:/asctec_arm_sdk/winarm/bin/../lib/gcc/arm-elf/4.1.1/../../../../arm-elf/lib/thumb/interwork\libm.a(s_fabs.o)
 .comment       0x00000804       0x1b c:/asctec_arm_sdk/winarm/bin/../lib/gcc/arm-elf/4.1.1/../../../../arm-elf/lib/thumb/interwork\libm.a(s_finite.o)
 .comment       0x0000081f       0x1b c:/asctec_arm_sdk/winarm/bin/../lib/gcc/arm-elf/4.1.1/../../../../arm-elf/lib/thumb/interwork\libm.a(s_floor.o)
 .comment       0x0000083a       0x1b c:/asctec_arm_sdk/winarm/bin/../lib/gcc/arm-elf/4.1.1/../../../../arm-elf/lib/thumb/interwork\libm.a(s_lib_ver.o)
 .comment       0x00000855       0x1b c:/asctec_arm_sdk/winarm/bin/../lib/gcc/arm-elf/4.1.1/../../../../arm-elf/lib/thumb/interwork\libm.a(s_matherr.o)
 .comment       0x00000870       0x1b c:/asctec_arm_sdk/winarm/bin/../lib/gcc/arm-elf/4.1.1/../../../../arm-elf/lib/thumb/interwork\libm.a(s_rint.o)
 .comment       0x0000088b       0x1b c:/asctec_arm_sdk/winarm/bin/../lib/gcc/arm-elf/4.1.1/../../../../arm-elf/lib/thumb/interwork\libm.a(s_scalbn.o)
 .comment       0x000008a6       0x1b c:/asctec_arm_sdk/winarm/bin/../lib/gcc/arm-elf/4.1.1/../../../../arm-elf/lib/thumb/interwork\libm.a(sf_fabs.o)
 .comment       0x000008c1       0x1b c:/asctec_arm_sdk/winarm/bin/../lib/gcc/arm-elf/4.1.1/../../../../arm-elf/lib/thumb/interwork\libm.a(sf_finite.o)
 .comment       0x000008dc       0x1b c:/asctec_arm_sdk/winarm/bin/../lib/gcc/arm-elf/4.1.1/../../../../arm-elf/lib/thumb/interwork\libm.a(sf_isnan.o)
 .comment       0x000008f7       0x1b c:/asctec_arm_sdk/winarm/bin/../lib/gcc/arm-elf/4.1.1/../../../../arm-elf/lib/thumb/interwork\libm.a(sf_scalbn.o)
 .comment       0x00000912       0x1b c:/asctec_arm_sdk/winarm/bin/../lib/gcc/arm-elf/4.1.1/../../../../arm-elf/lib/thumb/interwork\libm.a(s_copysign.o)
 .comment       0x0000092d       0x1b c:/asctec_arm_sdk/winarm/bin/../lib/gcc/arm-elf/4.1.1/../../../../arm-elf/lib/thumb/interwork\libm.a(sf_copysign.o)
 .comment       0x00000948       0x1b c:/asctec_arm_sdk/winarm/bin/../lib/gcc/arm-elf/4.1.1/../../../../arm-elf/lib/thumb/interwork\libg.a(errno.o)

.debug
 *(.debug)

.line
 *(.line)

.debug_srcinfo
 *(.debug_srcinfo)

.debug_sfnames
 *(.debug_sfnames)

.debug_aranges  0x00000000      0x530
 *(.debug_aranges)
 .debug_aranges
                0x00000000       0x28 Common_WinARM/src/Startup.o
 .debug_aranges
                0x00000028       0x28 Common_WinARM/src/swi_handler.o
 .debug_aranges
                0x00000050       0x20 LL_HL_comm.o
 .debug_aranges
                0x00000070       0x20 mymath.o
 .debug_aranges
                0x00000090       0x20 gpsmath.o
 .debug_aranges
                0x000000b0       0x20 sdk.o
 .debug_aranges
                0x000000d0       0x20 sdk_telemetry.o
 .debug_aranges
                0x000000f0       0x20 buzzer.o
 .debug_aranges
                0x00000110       0x20 lpc_aci_eeprom.o
 .debug_aranges
                0x00000130       0x20 asctecCommIntfOnboard.o
 .debug_aranges
                0x00000150       0x20 buildInfoSetup.o
 .debug_aranges
                0x00000170       0x20 main.o
 .debug_aranges
                0x00000190       0x20 hardware.o
 .debug_aranges
                0x000001b0       0x20 system.o
 .debug_aranges
                0x000001d0       0x20 uart.o
 .debug_aranges
                0x000001f0       0x20 syscalls.o
 .debug_aranges
                0x00000210       0x20 i2c.o
 .debug_aranges
                0x00000230       0x20 i2c1.o
 .debug_aranges
                0x00000250       0x20 Common_WinARM/src/irq.o
 .debug_aranges
                0x00000270       0x20 adc.o
 .debug_aranges
                0x00000290       0x20 ssp.o
 .debug_aranges
                0x000002b0       0x20 pelican_ptu.o
 .debug_aranges
                0x000002d0       0x20 jetiTelemetry.o
 .debug_aranges
                0x000002f0       0x20 LPC2k_ee.o
 .debug_aranges
                0x00000310       0x20 lab.o
 .debug_aranges
                0x00000330       0x20 Utilites.o
 .debug_aranges
                0x00000350       0x20 c:/asctec_arm_sdk/winarm/bin/../lib/gcc/arm-elf/4.1.1/thumb/interwork\libgcc.a(_udivsi3.o)
 .debug_aranges
                0x00000370       0x20 c:/asctec_arm_sdk/winarm/bin/../lib/gcc/arm-elf/4.1.1/thumb/interwork\libgcc.a(_divsi3.o)
 .debug_aranges
                0x00000390       0x20 c:/asctec_arm_sdk/winarm/bin/../lib/gcc/arm-elf/4.1.1/thumb/interwork\libgcc.a(_umodsi3.o)
 .debug_aranges
                0x000003b0       0x20 c:/asctec_arm_sdk/winarm/bin/../lib/gcc/arm-elf/4.1.1/thumb/interwork\libgcc.a(_modsi3.o)
 .debug_aranges
                0x000003d0       0x20 c:/asctec_arm_sdk/winarm/bin/../lib/gcc/arm-elf/4.1.1/thumb/interwork\libgcc.a(_dvmd_tls.o)
 .debug_aranges
                0x000003f0       0x20 c:/asctec_arm_sdk/winarm/bin/../lib/gcc/arm-elf/4.1.1/thumb/interwork\libgcc.a(_addsubdf3.o)
 .debug_aranges
                0x00000410       0x20 c:/asctec_arm_sdk/winarm/bin/../lib/gcc/arm-elf/4.1.1/thumb/interwork\libgcc.a(_muldivdf3.o)
 .debug_aranges
                0x00000430       0x20 c:/asctec_arm_sdk/winarm/bin/../lib/gcc/arm-elf/4.1.1/thumb/interwork\libgcc.a(_cmpdf2.o)
 .debug_aranges
                0x00000450       0x20 c:/asctec_arm_sdk/winarm/bin/../lib/gcc/arm-elf/4.1.1/thumb/interwork\libgcc.a(_fixdfsi.o)
 .debug_aranges
                0x00000470       0x20 c:/asctec_arm_sdk/winarm/bin/../lib/gcc/arm-elf/4.1.1/thumb/interwork\libgcc.a(_truncdfsf2.o)
 .debug_aranges
                0x00000490       0x20 c:/asctec_arm_sdk/winarm/bin/../lib/gcc/arm-elf/4.1.1/thumb/interwork\libgcc.a(_addsubsf3.o)
 .debug_aranges
                0x000004b0       0x20 c:/asctec_arm_sdk/winarm/bin/../lib/gcc/arm-elf/4.1.1/thumb/interwork\libgcc.a(_muldivsf3.o)
 .debug_aranges
                0x000004d0       0x20 c:/asctec_arm_sdk/winarm/bin/../lib/gcc/arm-elf/4.1.1/thumb/interwork\libgcc.a(_cmpsf2.o)
 .debug_aranges
                0x000004f0       0x20 c:/asctec_arm_sdk/winarm/bin/../lib/gcc/arm-elf/4.1.1/thumb/interwork\libgcc.a(_fixunssfsi.o)
 .debug_aranges
                0x00000510       0x20 c:/asctec_arm_sdk/winarm/bin/../lib/gcc/arm-elf/4.1.1/thumb/interwork\libgcc.a(_fixsfsi.o)

.debug_pubnames
                0x00000000     0x1fc8
 *(.debug_pubnames)
 .debug_pubnames
                0x00000000      0x164 LL_HL_comm.o
 .debug_pubnames
                0x00000164       0x2d mymath.o
 .debug_pubnames
                0x00000191       0x54 gpsmath.o
 .debug_pubnames
                0x000001e5      0x247 sdk.o
 .debug_pubnames
                0x0000042c       0xbe sdk_telemetry.o
 .debug_pubnames
                0x000004ea       0xb8 buzzer.o
 .debug_pubnames
                0x000005a2       0x93 lpc_aci_eeprom.o
 .debug_pubnames
                0x00000635      0x91c asctecCommIntfOnboard.o
 .debug_pubnames
                0x00000f51       0x5d buildInfoSetup.o
 .debug_pubnames
                0x00000fae      0x175 main.o
 .debug_pubnames
                0x00001123       0x41 hardware.o
 .debug_pubnames
                0x00001164      0x10c system.o
 .debug_pubnames
                0x00001270      0x319 uart.o
 .debug_pubnames
                0x00001589       0x69 syscalls.o
 .debug_pubnames
                0x000015f2      0x120 i2c.o
 .debug_pubnames
                0x00001712      0x10c i2c1.o
 .debug_pubnames
                0x0000181e       0x41 Common_WinARM/src/irq.o
 .debug_pubnames
                0x0000185f       0xbc adc.o
 .debug_pubnames
                0x0000191b      0x113 ssp.o
 .debug_pubnames
                0x00001a2e      0x129 pelican_ptu.o
 .debug_pubnames
                0x00001b57      0x1d8 jetiTelemetry.o
 .debug_pubnames
                0x00001d2f       0x7c LPC2k_ee.o
 .debug_pubnames
                0x00001dab      0x127 lab.o
 .debug_pubnames
                0x00001ed2       0xf6 Utilites.o

.debug_info     0x00000000     0xb02f
 *(.debug_info .gnu.linkonce.wi.*)
 .debug_info    0x00000000       0x6f Common_WinARM/src/Startup.o
 .debug_info    0x0000006f       0x73 Common_WinARM/src/swi_handler.o
 .debug_info    0x000000e2     0x101c LL_HL_comm.o
 .debug_info    0x000010fe       0xa1 mymath.o
 .debug_info    0x0000119f      0x1a6 gpsmath.o
 .debug_info    0x00001345      0xb38 sdk.o
 .debug_info    0x00001e7d      0x788 sdk_telemetry.o
 .debug_info    0x00002605      0x468 buzzer.o
 .debug_info    0x00002a6d      0x2ec lpc_aci_eeprom.o
 .debug_info    0x00002d59     0x12f3 asctecCommIntfOnboard.o
 .debug_info    0x0000404c      0x1cb buildInfoSetup.o
 .debug_info    0x00004217     0x11c6 main.o
 .debug_info    0x000053dd      0x13c hardware.o
 .debug_info    0x00005519      0x2f9 system.o
 .debug_info    0x00005812      0x9cb uart.o
 .debug_info    0x000061dd     0x1021 syscalls.o
 .debug_info    0x000071fe      0x30a i2c.o
 .debug_info    0x00007508      0x88b i2c1.o
 .debug_info    0x00007d93      0x1cc Common_WinARM/src/irq.o
 .debug_info    0x00007f5f      0x2fb adc.o
 .debug_info    0x0000825a      0x2eb ssp.o
 .debug_info    0x00008545      0xad0 pelican_ptu.o
 .debug_info    0x00009015      0x7a6 jetiTelemetry.o
 .debug_info    0x000097bb      0x3da LPC2k_ee.o
 .debug_info    0x00009b95      0x694 lab.o
 .debug_info    0x0000a229      0x744 Utilites.o
 .debug_info    0x0000a96d       0x74 c:/asctec_arm_sdk/winarm/bin/../lib/gcc/arm-elf/4.1.1/thumb/interwork\libgcc.a(_udivsi3.o)
 .debug_info    0x0000a9e1       0x74 c:/asctec_arm_sdk/winarm/bin/../lib/gcc/arm-elf/4.1.1/thumb/interwork\libgcc.a(_divsi3.o)
 .debug_info    0x0000aa55       0x74 c:/asctec_arm_sdk/winarm/bin/../lib/gcc/arm-elf/4.1.1/thumb/interwork\libgcc.a(_umodsi3.o)
 .debug_info    0x0000aac9       0x74 c:/asctec_arm_sdk/winarm/bin/../lib/gcc/arm-elf/4.1.1/thumb/interwork\libgcc.a(_modsi3.o)
 .debug_info    0x0000ab3d       0x74 c:/asctec_arm_sdk/winarm/bin/../lib/gcc/arm-elf/4.1.1/thumb/interwork\libgcc.a(_dvmd_tls.o)
 .debug_info    0x0000abb1       0x73 c:/asctec_arm_sdk/winarm/bin/../lib/gcc/arm-elf/4.1.1/thumb/interwork\libgcc.a(_addsubdf3.o)
 .debug_info    0x0000ac24       0x73 c:/asctec_arm_sdk/winarm/bin/../lib/gcc/arm-elf/4.1.1/thumb/interwork\libgcc.a(_muldivdf3.o)
 .debug_info    0x0000ac97       0x73 c:/asctec_arm_sdk/winarm/bin/../lib/gcc/arm-elf/4.1.1/thumb/interwork\libgcc.a(_cmpdf2.o)
 .debug_info    0x0000ad0a       0x73 c:/asctec_arm_sdk/winarm/bin/../lib/gcc/arm-elf/4.1.1/thumb/interwork\libgcc.a(_fixdfsi.o)
 .debug_info    0x0000ad7d       0x73 c:/asctec_arm_sdk/winarm/bin/../lib/gcc/arm-elf/4.1.1/thumb/interwork\libgcc.a(_truncdfsf2.o)
 .debug_info    0x0000adf0       0x73 c:/asctec_arm_sdk/winarm/bin/../lib/gcc/arm-elf/4.1.1/thumb/interwork\libgcc.a(_addsubsf3.o)
 .debug_info    0x0000ae63       0x73 c:/asctec_arm_sdk/winarm/bin/../lib/gcc/arm-elf/4.1.1/thumb/interwork\libgcc.a(_muldivsf3.o)
 .debug_info    0x0000aed6       0x73 c:/asctec_arm_sdk/winarm/bin/../lib/gcc/arm-elf/4.1.1/thumb/interwork\libgcc.a(_cmpsf2.o)
 .debug_info    0x0000af49       0x73 c:/asctec_arm_sdk/winarm/bin/../lib/gcc/arm-elf/4.1.1/thumb/interwork\libgcc.a(_fixunssfsi.o)
 .debug_info    0x0000afbc       0x73 c:/asctec_arm_sdk/winarm/bin/../lib/gcc/arm-elf/4.1.1/thumb/interwork\libgcc.a(_fixsfsi.o)

.debug_abbrev   0x00000000     0x1b10
 *(.debug_abbrev)
 .debug_abbrev  0x00000000       0x10 Common_WinARM/src/Startup.o
 .debug_abbrev  0x00000010       0x10 Common_WinARM/src/swi_handler.o
 .debug_abbrev  0x00000020      0x1d2 LL_HL_comm.o
 .debug_abbrev  0x000001f2       0x9b mymath.o
 .debug_abbrev  0x0000028d       0x97 gpsmath.o
 .debug_abbrev  0x00000324      0x1c2 sdk.o
 .debug_abbrev  0x000004e6      0x118 sdk_telemetry.o
 .debug_abbrev  0x000005fe       0xfa buzzer.o
 .debug_abbrev  0x000006f8      0x146 lpc_aci_eeprom.o
 .debug_abbrev  0x0000083e      0x2a5 asctecCommIntfOnboard.o
 .debug_abbrev  0x00000ae3       0xbb buildInfoSetup.o
 .debug_abbrev  0x00000b9e      0x122 main.o
 .debug_abbrev  0x00000cc0       0x5d hardware.o
 .debug_abbrev  0x00000d1d       0xd7 system.o
 .debug_abbrev  0x00000df4      0x10b uart.o
 .debug_abbrev  0x00000eff      0x1a7 syscalls.o
 .debug_abbrev  0x000010a6       0xeb i2c.o
 .debug_abbrev  0x00001191      0x124 i2c1.o
 .debug_abbrev  0x000012b5       0xc5 Common_WinARM/src/irq.o
 .debug_abbrev  0x0000137a       0xfa adc.o
 .debug_abbrev  0x00001474       0xc0 ssp.o
 .debug_abbrev  0x00001534       0xf4 pelican_ptu.o
 .debug_abbrev  0x00001628      0x13d jetiTelemetry.o
 .debug_abbrev  0x00001765      0x114 LPC2k_ee.o
 .debug_abbrev  0x00001879       0xd3 lab.o
 .debug_abbrev  0x0000194c       0x98 Utilites.o
 .debug_abbrev  0x000019e4       0x14 c:/asctec_arm_sdk/winarm/bin/../lib/gcc/arm-elf/4.1.1/thumb/interwork\libgcc.a(_udivsi3.o)
 .debug_abbrev  0x000019f8       0x14 c:/asctec_arm_sdk/winarm/bin/../lib/gcc/arm-elf/4.1.1/thumb/interwork\libgcc.a(_divsi3.o)
 .debug_abbrev  0x00001a0c       0x14 c:/asctec_arm_sdk/winarm/bin/../lib/gcc/arm-elf/4.1.1/thumb/interwork\libgcc.a(_umodsi3.o)
 .debug_abbrev  0x00001a20       0x14 c:/asctec_arm_sdk/winarm/bin/../lib/gcc/arm-elf/4.1.1/thumb/interwork\libgcc.a(_modsi3.o)
 .debug_abbrev  0x00001a34       0x14 c:/asctec_arm_sdk/winarm/bin/../lib/gcc/arm-elf/4.1.1/thumb/interwork\libgcc.a(_dvmd_tls.o)
 .debug_abbrev  0x00001a48       0x14 c:/asctec_arm_sdk/winarm/bin/../lib/gcc/arm-elf/4.1.1/thumb/interwork\libgcc.a(_addsubdf3.o)
 .debug_abbrev  0x00001a5c       0x14 c:/asctec_arm_sdk/winarm/bin/../lib/gcc/arm-elf/4.1.1/thumb/interwork\libgcc.a(_muldivdf3.o)
 .debug_abbrev  0x00001a70       0x14 c:/asctec_arm_sdk/winarm/bin/../lib/gcc/arm-elf/4.1.1/thumb/interwork\libgcc.a(_cmpdf2.o)
 .debug_abbrev  0x00001a84       0x14 c:/asctec_arm_sdk/winarm/bin/../lib/gcc/arm-elf/4.1.1/thumb/interwork\libgcc.a(_fixdfsi.o)
 .debug_abbrev  0x00001a98       0x14 c:/asctec_arm_sdk/winarm/bin/../lib/gcc/arm-elf/4.1.1/thumb/interwork\libgcc.a(_truncdfsf2.o)
 .debug_abbrev  0x00001aac       0x14 c:/asctec_arm_sdk/winarm/bin/../lib/gcc/arm-elf/4.1.1/thumb/interwork\libgcc.a(_addsubsf3.o)
 .debug_abbrev  0x00001ac0       0x14 c:/asctec_arm_sdk/winarm/bin/../lib/gcc/arm-elf/4.1.1/thumb/interwork\libgcc.a(_muldivsf3.o)
 .debug_abbrev  0x00001ad4       0x14 c:/asctec_arm_sdk/winarm/bin/../lib/gcc/arm-elf/4.1.1/thumb/interwork\libgcc.a(_cmpsf2.o)
 .debug_abbrev  0x00001ae8       0x14 c:/asctec_arm_sdk/winarm/bin/../lib/gcc/arm-elf/4.1.1/thumb/interwork\libgcc.a(_fixunssfsi.o)
 .debug_abbrev  0x00001afc       0x14 c:/asctec_arm_sdk/winarm/bin/../lib/gcc/arm-elf/4.1.1/thumb/interwork\libgcc.a(_fixsfsi.o)

.debug_line     0x00000000     0x2b91
 *(.debug_line)
 .debug_line    0x00000000       0xcf Common_WinARM/src/Startup.o
 .debug_line    0x000000cf       0xa6 Common_WinARM/src/swi_handler.o
 .debug_line    0x00000175      0x45b LL_HL_comm.o
 .debug_line    0x000005d0       0x41 mymath.o
 .debug_line    0x00000611       0x51 gpsmath.o
 .debug_line    0x00000662      0x2e9 sdk.o
 .debug_line    0x0000094b      0x14d sdk_telemetry.o
 .debug_line    0x00000a98      0x139 buzzer.o
 .debug_line    0x00000bd1      0x113 lpc_aci_eeprom.o
 .debug_line    0x00000ce4      0x680 asctecCommIntfOnboard.o
 .debug_line    0x00001364       0x94 buildInfoSetup.o
 .debug_line    0x000013f8      0x140 main.o
 .debug_line    0x00001538       0x4b hardware.o
 .debug_line    0x00001583       0xae system.o
 .debug_line    0x00001631      0x120 uart.o
 .debug_line    0x00001751      0x19d syscalls.o
 .debug_line    0x000018ee       0xc4 i2c.o
 .debug_line    0x000019b2      0x1a4 i2c1.o
 .debug_line    0x00001b56       0x84 Common_WinARM/src/irq.o
 .debug_line    0x00001bda       0x78 adc.o
 .debug_line    0x00001c52       0x7d ssp.o
 .debug_line    0x00001ccf       0xe3 pelican_ptu.o
 .debug_line    0x00001db2      0x121 jetiTelemetry.o
 .debug_line    0x00001ed3       0xb5 LPC2k_ee.o
 .debug_line    0x00001f88       0xa4 lab.o
 .debug_line    0x0000202c       0xe2 Utilites.o
 .debug_line    0x0000210e       0x76 c:/asctec_arm_sdk/winarm/bin/../lib/gcc/arm-elf/4.1.1/thumb/interwork\libgcc.a(_udivsi3.o)
 .debug_line    0x00002184       0x82 c:/asctec_arm_sdk/winarm/bin/../lib/gcc/arm-elf/4.1.1/thumb/interwork\libgcc.a(_divsi3.o)
 .debug_line    0x00002206       0x6e c:/asctec_arm_sdk/winarm/bin/../lib/gcc/arm-elf/4.1.1/thumb/interwork\libgcc.a(_umodsi3.o)
 .debug_line    0x00002274       0x77 c:/asctec_arm_sdk/winarm/bin/../lib/gcc/arm-elf/4.1.1/thumb/interwork\libgcc.a(_modsi3.o)
 .debug_line    0x000022eb       0x60 c:/asctec_arm_sdk/winarm/bin/../lib/gcc/arm-elf/4.1.1/thumb/interwork\libgcc.a(_dvmd_tls.o)
 .debug_line    0x0000234b      0x168 c:/asctec_arm_sdk/winarm/bin/../lib/gcc/arm-elf/4.1.1/thumb/interwork\libgcc.a(_addsubdf3.o)
 .debug_line    0x000024b3      0x17d c:/asctec_arm_sdk/winarm/bin/../lib/gcc/arm-elf/4.1.1/thumb/interwork\libgcc.a(_muldivdf3.o)
 .debug_line    0x00002630       0xaa c:/asctec_arm_sdk/winarm/bin/../lib/gcc/arm-elf/4.1.1/thumb/interwork\libgcc.a(_cmpdf2.o)
 .debug_line    0x000026da       0x75 c:/asctec_arm_sdk/winarm/bin/../lib/gcc/arm-elf/4.1.1/thumb/interwork\libgcc.a(_fixdfsi.o)
 .debug_line    0x0000274f       0x86 c:/asctec_arm_sdk/winarm/bin/../lib/gcc/arm-elf/4.1.1/thumb/interwork\libgcc.a(_truncdfsf2.o)
 .debug_line    0x000027d5      0x116 c:/asctec_arm_sdk/winarm/bin/../lib/gcc/arm-elf/4.1.1/thumb/interwork\libgcc.a(_addsubsf3.o)
 .debug_line    0x000028eb      0x120 c:/asctec_arm_sdk/winarm/bin/../lib/gcc/arm-elf/4.1.1/thumb/interwork\libgcc.a(_muldivsf3.o)
 .debug_line    0x00002a0b       0x9e c:/asctec_arm_sdk/winarm/bin/../lib/gcc/arm-elf/4.1.1/thumb/interwork\libgcc.a(_cmpsf2.o)
 .debug_line    0x00002aa9       0x73 c:/asctec_arm_sdk/winarm/bin/../lib/gcc/arm-elf/4.1.1/thumb/interwork\libgcc.a(_fixunssfsi.o)
 .debug_line    0x00002b1c       0x75 c:/asctec_arm_sdk/winarm/bin/../lib/gcc/arm-elf/4.1.1/thumb/interwork\libgcc.a(_fixsfsi.o)

.debug_frame    0x00000000     0x15e4
 *(.debug_frame)
 .debug_frame   0x00000000       0x9c LL_HL_comm.o
 .debug_frame   0x0000009c       0x3c mymath.o
 .debug_frame   0x000000d8       0x38 gpsmath.o
 .debug_frame   0x00000110       0xec sdk.o
 .debug_frame   0x000001fc       0x7c sdk_telemetry.o
 .debug_frame   0x00000278       0x40 buzzer.o
 .debug_frame   0x000002b8       0x98 lpc_aci_eeprom.o
 .debug_frame   0x00000350      0x310 asctecCommIntfOnboard.o
 .debug_frame   0x00000660       0x38 buildInfoSetup.o
 .debug_frame   0x00000698       0x90 main.o
 .debug_frame   0x00000728       0x30 hardware.o
 .debug_frame   0x00000758      0x190 system.o
 .debug_frame   0x000008e8      0x250 uart.o
 .debug_frame   0x00000b38       0xf0 syscalls.o
 .debug_frame   0x00000c28       0xd0 i2c.o
 .debug_frame   0x00000cf8       0xd0 i2c1.o
 .debug_frame   0x00000dc8       0x90 Common_WinARM/src/irq.o
 .debug_frame   0x00000e58       0xb0 adc.o
 .debug_frame   0x00000f08       0x70 ssp.o
 .debug_frame   0x00000f78       0xb0 pelican_ptu.o
 .debug_frame   0x00001028      0x1f0 jetiTelemetry.o
 .debug_frame   0x00001218       0xf0 LPC2k_ee.o
 .debug_frame   0x00001308       0x74 lab.o
 .debug_frame   0x0000137c      0x1c8 Utilites.o
 .debug_frame   0x00001544       0x28 c:/asctec_arm_sdk/winarm/bin/../lib/gcc/arm-elf/4.1.1/thumb/interwork\libgcc.a(_udivsi3.o)
 .debug_frame   0x0000156c       0x28 c:/asctec_arm_sdk/winarm/bin/../lib/gcc/arm-elf/4.1.1/thumb/interwork\libgcc.a(_divsi3.o)
 .debug_frame   0x00001594       0x28 c:/asctec_arm_sdk/winarm/bin/../lib/gcc/arm-elf/4.1.1/thumb/interwork\libgcc.a(_umodsi3.o)
 .debug_frame   0x000015bc       0x28 c:/asctec_arm_sdk/winarm/bin/../lib/gcc/arm-elf/4.1.1/thumb/interwork\libgcc.a(_modsi3.o)

.debug_str      0x00000000     0x1b91
 *(.debug_str)
 .debug_str     0x00000000      0xa3e LL_HL_comm.o
                                0xb28 (size before relaxing)
 .debug_str     0x00000a3e       0x1c mymath.o
                                 0x64 (size before relaxing)
 .debug_str     0x00000a5a       0x33 gpsmath.o
                                0x15c (size before relaxing)
 .debug_str     0x00000a8d      0x1ad sdk.o
                                0x79d (size before relaxing)
 .debug_str     0x00000c3a       0xbe sdk_telemetry.o
                                0x5ea (size before relaxing)
 .debug_str     0x00000cf8      0x104 buzzer.o
                                0x3e0 (size before relaxing)
 .debug_str     0x00000dfc      0x135 lpc_aci_eeprom.o
                                0x1e3 (size before relaxing)
 .debug_str     0x00000f31      0xa04 asctecCommIntfOnboard.o
                                0xb3b (size before relaxing)
 .debug_str     0x00001935       0x32 buildInfoSetup.o
                                0x161 (size before relaxing)
 .debug_str     0x00001967       0x52 main.o
 .debug_str     0x000019b9       0x22 uart.o
 .debug_str     0x000019db       0x25 syscalls.o
 .debug_str     0x00001a00       0x12 i2c.o
 .debug_str     0x00001a12       0x35 i2c1.o
 .debug_str     0x00001a47       0x1e Common_WinARM/src/irq.o
 .debug_str     0x00001a65       0x3c adc.o
 .debug_str     0x00001aa1       0x12 ssp.o
 .debug_str     0x00001ab3       0x48 pelican_ptu.o
 .debug_str     0x00001afb       0x18 jetiTelemetry.o
 .debug_str     0x00001b13       0x5a LPC2k_ee.o
 .debug_str     0x00001b6d       0x12 lab.o
 .debug_str     0x00001b7f       0x12 Utilites.o

.debug_loc      0x00000000     0x2d12
 *(.debug_loc)
 .debug_loc     0x00000000      0x116 LL_HL_comm.o
 .debug_loc     0x00000116       0x50 mymath.o
 .debug_loc     0x00000166       0x87 gpsmath.o
 .debug_loc     0x000001ed      0x1c8 sdk.o
 .debug_loc     0x000003b5      0x179 sdk_telemetry.o
 .debug_loc     0x0000052e      0x339 buzzer.o
 .debug_loc     0x00000867      0x227 lpc_aci_eeprom.o
 .debug_loc     0x00000a8e     0x1011 asctecCommIntfOnboard.o
 .debug_loc     0x00001a9f       0x91 buildInfoSetup.o
 .debug_loc     0x00001b30       0xa8 main.o
 .debug_loc     0x00001bd8       0x2a hardware.o
 .debug_loc     0x00001c02      0x1f8 system.o
 .debug_loc     0x00001dfa      0x2f4 uart.o
 .debug_loc     0x000020ee      0x126 syscalls.o
 .debug_loc     0x00002214       0xfc i2c.o
 .debug_loc     0x00002310       0xfc i2c1.o
 .debug_loc     0x0000240c       0xa8 Common_WinARM/src/irq.o
 .debug_loc     0x000024b4       0xd2 adc.o
 .debug_loc     0x00002586       0x7e ssp.o
 .debug_loc     0x00002604       0xd2 pelican_ptu.o
 .debug_loc     0x000026d6      0x276 jetiTelemetry.o
 .debug_loc     0x0000294c      0x126 LPC2k_ee.o
 .debug_loc     0x00002a72       0x7e lab.o
 .debug_loc     0x00002af0      0x222 Utilites.o

.debug_macinfo
 *(.debug_macinfo)

.debug_weaknames
 *(.debug_weaknames)

.debug_funcnames
 *(.debug_funcnames)

.debug_typenames
 *(.debug_typenames)

.debug_varnames
 *(.debug_varnames)
OUTPUT(main.elf elf32-littlearm)

.debug_ranges   0x00000000      0x358
 .debug_ranges  0x00000000       0xb0 LL_HL_comm.o
 .debug_ranges  0x000000b0      0x278 asctecCommIntfOnboard.o
 .debug_ranges  0x00000328       0x30 buildInfoSetup.o

Cross Reference Table

Symbol                                            File
ACISDK                                            main.o
ADC0IntDone                                       adc.o
ADC0Read                                          adc.o
ADC0Value                                         adc.o
ADC0getSamplingResults                            adc.o
                                                  main.o
ADC0triggerSampling                               adc.o
                                                  main.o
ADC1IntDone                                       adc.o
ADC1Read                                          adc.o
ADC1Value                                         adc.o
ADCInit                                           adc.o
                                                  system.o
ALARM_battery_warning_voltage_high                buzzer.o
ALARM_battery_warning_voltage_low                 buzzer.o
CAMERA_Commands                                   pelican_ptu.o
CAMERA_ptu                                        pelican_ptu.o
Command                                           lab.o
CurrentRxIndex                                    ssp.o
CurrentTxIndex                                    ssp.o
DataOutputsPerSecond                              main.o
                                                  uart.o
FiqDisable                                        Common_WinARM/src/swi_handler.o
FiqEnable                                         Common_WinARM/src/swi_handler.o
FiqRestore                                        Common_WinARM/src/swi_handler.o
GPS_Data                                          ./\libublox.a(ublox.o)
                                                  i2c1.o
                                                  main.o
                                                  buzzer.o
                                                  sdk_telemetry.o
                                                  sdk.o
                                                  gpsmath.o
                                                  LL_HL_comm.o
GPS_RawBuffer                                     ./\libublox.a(ublox.o)
GPS_Time                                          ./\libublox.a(ublox.o)
                                                  main.o
GPS_raw_data_size                                 ./\libublox.a(ublox.o)
GPS_timeout                                       main.o
                                                  ./\libublox.a(ublox.o)
                                                  lab.o
                                                  pelican_ptu.o
                                                  ssp.o
                                                  i2c1.o
                                                  uart.o
                                                  system.o
                                                  hardware.o
                                                  buildInfoSetup.o
                                                  buzzer.o
                                                  sdk_telemetry.o
                                                  sdk.o
                                                  LL_HL_comm.o
HL2LL_write_cycle                                 LL_HL_comm.o
                                                  main.o
HL_Status                                         i2c1.o
                                                  main.o
                                                  sdk_telemetry.o
                                                  LL_HL_comm.o
I2C0MasterHandler                                 i2c.o
I2C0_send_motordata                               i2c.o
I2C1Count                                         i2c1.o
I2C1Engine                                        i2c1.o
I2C1Init                                          i2c1.o
                                                  main.o
I2C1MasterBuffer                                  i2c1.o
I2C1MasterHandler                                 i2c1.o
I2C1MasterState                                   i2c1.o
I2C1State                                         i2c1.o
I2C1WriteLength                                   i2c1.o
I2C1_setRGBLed                                    i2c1.o
                                                  main.o
                                                  buzzer.o
I2CCmd                                            i2c.o
I2CCount                                          i2c.o
I2CEngine                                         i2c.o
I2CInit                                           i2c.o
I2CMasterBuffer                                   i2c.o
I2CMasterState                                    i2c.o
I2CMode                                           i2c.o
I2CReadLength                                     i2c.o
I2CSlaveBuffer                                    i2c.o
I2CSlaveState                                     i2c.o
I2CStart                                          i2c.o
I2CStop                                           i2c.o
I2CWriteLength                                    i2c.o
IMU_CalcData                                      pelican_ptu.o
                                                  main.o
                                                  sdk.o
                                                  LL_HL_comm.o
IMU_CalcData_tmp                                  main.o
IntDisable                                        Common_WinARM/src/swi_handler.o
IntEnable                                         Common_WinARM/src/swi_handler.o
IntGetCPSR                                        Common_WinARM/src/swi_handler.o
IntRestore                                        Common_WinARM/src/swi_handler.o
LED                                               hardware.o
                                                  main.o
LL_1khz_attitude_data                             pelican_ptu.o
                                                  i2c1.o
                                                  buzzer.o
                                                  sdk_telemetry.o
                                                  LL_HL_comm.o
LL_1khz_control_input                             LL_HL_comm.o
LL_write                                          ssp.o
LL_write_ctrl_data                                LL_HL_comm.o
LL_write_init                                     ssp.o
                                                  main.o
MAXPHI2                                           lab.o
MINPHI2                                           lab.o
PTU_cam_angle_pitch_offset                        pelican_ptu.o
PTU_cam_angle_roll_offset                         pelican_ptu.o
PTU_cam_option_4_version                          main.o
                                                  pelican_ptu.o
PTU_enable_plain_ch7_to_servo                     pelican_ptu.o
PTU_init                                          pelican_ptu.o
                                                  main.o
PTU_update                                        pelican_ptu.o
                                                  main.o
PTU_update_middle_positions_by_stick              pelican_ptu.o
PWM_Init                                          system.o
RO_ALL_Data                                       main.o
                                                  sdk_telemetry.o
                                                  sdk.o
                                                  LL_HL_comm.o
RO_RC_Data                                        pelican_ptu.o
                                                  sdk.o
                                                  LL_HL_comm.o
RdIndex                                           i2c.o
SDK_EXAMPLE_attitude_commands                     sdk.o
SDK_EXAMPLE_direct_individual_motor_commands      sdk.o
SDK_EXAMPLE_direct_motor_commands_with_standard_output_mapping sdk.o
SDK_EXAMPLE_gps_waypoint_control                  sdk.o
SDK_EXAMPLE_turn_motors_off                       sdk.o
SDK_EXAMPLE_turn_motors_on                        sdk.o
SDK_Init                                          sdk.o
                                                  main.o
SDK_SetEmergencyMode                              sdk.o
                                                  sdk_telemetry.o
SDK_jetiAscTecExampleInit                         sdk_telemetry.o
SDK_jetiAscTecExampleKeyChange                    sdk_telemetry.o
SDK_jetiAscTecExampleRun                          sdk_telemetry.o
SDK_jetiAscTecExampleUpdateDisplay                sdk_telemetry.o
SDK_mainloop                                      sdk.o
                                                  main.o
SERVO_pitch_move                                  pelican_ptu.o
SERVO_roll_move                                   pelican_ptu.o
SPIRDData                                         ssp.o
SPIWRData                                         ssp.o
                                                  LL_HL_comm.o
SPIWR_num_bytes                                   ssp.o
                                                  LL_HL_comm.o
SSPHandler                                        ssp.o
                                                  system.o
SSP_ack                                           LL_HL_comm.o
SSP_data_distribution_HL                          LL_HL_comm.o
SSP_receiption_complete                           ssp.o
SSP_rx_handler_HL                                 LL_HL_comm.o
                                                  ssp.o
SSP_trans_cnt                                     ssp.o
                                                  uart.o
                                                  system.o
                                                  main.o
SYSTEM_initialized                                main.o
                                                  lab.o
                                                  pelican_ptu.o
                                                  ssp.o
                                                  i2c1.o
                                                  uart.o
                                                  system.o
                                                  hardware.o
                                                  buildInfoSetup.o
                                                  buzzer.o
                                                  sdk_telemetry.o
                                                  sdk.o
                                                  LL_HL_comm.o
SoftwareInterrupt                                 Common_WinARM/src/swi_handler.o
                                                  Common_WinARM/src/Startup.o
UART1Initialize                                   uart.o
                                                  ./\libublox.a(ublox.o)
                                                  system.o
UART1ReadChar                                     uart.o
UART1WriteChar                                    uart.o
UART1_rxcount                                     uart.o
UART1_rxptr                                       uart.o
UART1_send                                        uart.o
                                                  ./\libublox.a(ublox.o)
UART1_send_ringbuffer                             uart.o
UART1_syncstate                                   uart.o
UARTInitialize                                    uart.o
                                                  system.o
UARTReadChar                                      uart.o
                                                  syscalls.o
UARTWriteChar                                     uart.o
                                                  syscalls.o
                                                  main.o
UART_CalibDoneFlag                                uart.o
UART_SendPacket                                   uart.o
UART_rxcount                                      uart.o
UART_rxptr                                        uart.o
UART_send                                         uart.o
UART_send_ringbuffer                              uart.o
UART_syncstate                                    uart.o
WO_CTRL_Input                                     sdk.o
                                                  LL_HL_comm.o
WO_Direct_Individual_Motor_Control                lab.o
                                                  sdk.o
                                                  LL_HL_comm.o
WO_Direct_Motor_Control                           sdk.o
                                                  LL_HL_comm.o
WO_SDK                                            lab.o
                                                  sdk.o
                                                  LL_HL_comm.o
Winv                                              lab.o
WrIndex                                           i2c.o
WrIndex1                                          i2c1.o
_Balloc                                           c:/asctec_arm_sdk/winarm/bin/../lib/gcc/arm-elf/4.1.1/../../../../arm-elf/lib/thumb/interwork\libc.a(mprec.o)
                                                  c:/asctec_arm_sdk/winarm/bin/../lib/gcc/arm-elf/4.1.1/../../../../arm-elf/lib/thumb/interwork\libc.a(dtoa.o)
_Bfree                                            c:/asctec_arm_sdk/winarm/bin/../lib/gcc/arm-elf/4.1.1/../../../../arm-elf/lib/thumb/interwork\libc.a(mprec.o)
                                                  c:/asctec_arm_sdk/winarm/bin/../lib/gcc/arm-elf/4.1.1/../../../../arm-elf/lib/thumb/interwork\libc.a(dtoa.o)
_PathLocale                                       c:/asctec_arm_sdk/winarm/bin/../lib/gcc/arm-elf/4.1.1/../../../../arm-elf/lib/thumb/interwork\libc.a(locale.o)
__IRQ_Wrapper                                     Common_WinARM/src/Startup.o
____adddf3_change_to_arm                          c:/asctec_arm_sdk/winarm/bin/../lib/gcc/arm-elf/4.1.1/../../../../arm-elf/lib/thumb/interwork\libg.a(errno.o)
____adddf3_from_thumb                             c:/asctec_arm_sdk/winarm/bin/../lib/gcc/arm-elf/4.1.1/../../../../arm-elf/lib/thumb/interwork\libg.a(errno.o)
____addsf3_change_to_arm                          c:/asctec_arm_sdk/winarm/bin/../lib/gcc/arm-elf/4.1.1/../../../../arm-elf/lib/thumb/interwork\libg.a(errno.o)
____addsf3_from_thumb                             c:/asctec_arm_sdk/winarm/bin/../lib/gcc/arm-elf/4.1.1/../../../../arm-elf/lib/thumb/interwork\libg.a(errno.o)
____divdf3_change_to_arm                          c:/asctec_arm_sdk/winarm/bin/../lib/gcc/arm-elf/4.1.1/../../../../arm-elf/lib/thumb/interwork\libg.a(errno.o)
____divdf3_from_thumb                             c:/asctec_arm_sdk/winarm/bin/../lib/gcc/arm-elf/4.1.1/../../../../arm-elf/lib/thumb/interwork\libg.a(errno.o)
____divsf3_change_to_arm                          c:/asctec_arm_sdk/winarm/bin/../lib/gcc/arm-elf/4.1.1/../../../../arm-elf/lib/thumb/interwork\libg.a(errno.o)
____divsf3_from_thumb                             c:/asctec_arm_sdk/winarm/bin/../lib/gcc/arm-elf/4.1.1/../../../../arm-elf/lib/thumb/interwork\libg.a(errno.o)
____divsi3_from_arm                               c:/asctec_arm_sdk/winarm/bin/../lib/gcc/arm-elf/4.1.1/../../../../arm-elf/lib/thumb/interwork\libg.a(errno.o)
____eqdf2_change_to_arm                           c:/asctec_arm_sdk/winarm/bin/../lib/gcc/arm-elf/4.1.1/../../../../arm-elf/lib/thumb/interwork\libg.a(errno.o)
____eqdf2_from_thumb                              c:/asctec_arm_sdk/winarm/bin/../lib/gcc/arm-elf/4.1.1/../../../../arm-elf/lib/thumb/interwork\libg.a(errno.o)
____eqsf2_change_to_arm                           c:/asctec_arm_sdk/winarm/bin/../lib/gcc/arm-elf/4.1.1/../../../../arm-elf/lib/thumb/interwork\libg.a(errno.o)
____eqsf2_from_thumb                              c:/asctec_arm_sdk/winarm/bin/../lib/gcc/arm-elf/4.1.1/../../../../arm-elf/lib/thumb/interwork\libg.a(errno.o)
____extendsfdf2_change_to_arm                     c:/asctec_arm_sdk/winarm/bin/../lib/gcc/arm-elf/4.1.1/../../../../arm-elf/lib/thumb/interwork\libg.a(errno.o)
____extendsfdf2_from_thumb                        c:/asctec_arm_sdk/winarm/bin/../lib/gcc/arm-elf/4.1.1/../../../../arm-elf/lib/thumb/interwork\libg.a(errno.o)
____fixdfsi_change_to_arm                         c:/asctec_arm_sdk/winarm/bin/../lib/gcc/arm-elf/4.1.1/../../../../arm-elf/lib/thumb/interwork\libg.a(errno.o)
____fixdfsi_from_thumb                            c:/asctec_arm_sdk/winarm/bin/../lib/gcc/arm-elf/4.1.1/../../../../arm-elf/lib/thumb/interwork\libg.a(errno.o)
____floatsidf_change_to_arm                       c:/asctec_arm_sdk/winarm/bin/../lib/gcc/arm-elf/4.1.1/../../../../arm-elf/lib/thumb/interwork\libg.a(errno.o)
____floatsidf_from_thumb                          c:/asctec_arm_sdk/winarm/bin/../lib/gcc/arm-elf/4.1.1/../../../../arm-elf/lib/thumb/interwork\libg.a(errno.o)
____floatsisf_change_to_arm                       c:/asctec_arm_sdk/winarm/bin/../lib/gcc/arm-elf/4.1.1/../../../../arm-elf/lib/thumb/interwork\libg.a(errno.o)
____floatsisf_from_thumb                          c:/asctec_arm_sdk/winarm/bin/../lib/gcc/arm-elf/4.1.1/../../../../arm-elf/lib/thumb/interwork\libg.a(errno.o)
____gedf2_change_to_arm                           c:/asctec_arm_sdk/winarm/bin/../lib/gcc/arm-elf/4.1.1/../../../../arm-elf/lib/thumb/interwork\libg.a(errno.o)
____gedf2_from_thumb                              c:/asctec_arm_sdk/winarm/bin/../lib/gcc/arm-elf/4.1.1/../../../../arm-elf/lib/thumb/interwork\libg.a(errno.o)
____gtdf2_change_to_arm                           c:/asctec_arm_sdk/winarm/bin/../lib/gcc/arm-elf/4.1.1/../../../../arm-elf/lib/thumb/interwork\libg.a(errno.o)
____gtdf2_from_thumb                              c:/asctec_arm_sdk/winarm/bin/../lib/gcc/arm-elf/4.1.1/../../../../arm-elf/lib/thumb/interwork\libg.a(errno.o)
____gtsf2_change_to_arm                           c:/asctec_arm_sdk/winarm/bin/../lib/gcc/arm-elf/4.1.1/../../../../arm-elf/lib/thumb/interwork\libg.a(errno.o)
____gtsf2_from_thumb                              c:/asctec_arm_sdk/winarm/bin/../lib/gcc/arm-elf/4.1.1/../../../../arm-elf/lib/thumb/interwork\libg.a(errno.o)
____ledf2_change_to_arm                           c:/asctec_arm_sdk/winarm/bin/../lib/gcc/arm-elf/4.1.1/../../../../arm-elf/lib/thumb/interwork\libg.a(errno.o)
____ledf2_from_thumb                              c:/asctec_arm_sdk/winarm/bin/../lib/gcc/arm-elf/4.1.1/../../../../arm-elf/lib/thumb/interwork\libg.a(errno.o)
____lesf2_change_to_arm                           c:/asctec_arm_sdk/winarm/bin/../lib/gcc/arm-elf/4.1.1/../../../../arm-elf/lib/thumb/interwork\libg.a(errno.o)
____lesf2_from_thumb                              c:/asctec_arm_sdk/winarm/bin/../lib/gcc/arm-elf/4.1.1/../../../../arm-elf/lib/thumb/interwork\libg.a(errno.o)
____ltdf2_change_to_arm                           c:/asctec_arm_sdk/winarm/bin/../lib/gcc/arm-elf/4.1.1/../../../../arm-elf/lib/thumb/interwork\libg.a(errno.o)
____ltdf2_from_thumb                              c:/asctec_arm_sdk/winarm/bin/../lib/gcc/arm-elf/4.1.1/../../../../arm-elf/lib/thumb/interwork\libg.a(errno.o)
____ltsf2_change_to_arm                           c:/asctec_arm_sdk/winarm/bin/../lib/gcc/arm-elf/4.1.1/../../../../arm-elf/lib/thumb/interwork\libg.a(errno.o)
____ltsf2_from_thumb                              c:/asctec_arm_sdk/winarm/bin/../lib/gcc/arm-elf/4.1.1/../../../../arm-elf/lib/thumb/interwork\libg.a(errno.o)
____muldf3_change_to_arm                          c:/asctec_arm_sdk/winarm/bin/../lib/gcc/arm-elf/4.1.1/../../../../arm-elf/lib/thumb/interwork\libg.a(errno.o)
____muldf3_from_thumb                             c:/asctec_arm_sdk/winarm/bin/../lib/gcc/arm-elf/4.1.1/../../../../arm-elf/lib/thumb/interwork\libg.a(errno.o)
____mulsf3_change_to_arm                          c:/asctec_arm_sdk/winarm/bin/../lib/gcc/arm-elf/4.1.1/../../../../arm-elf/lib/thumb/interwork\libg.a(errno.o)
____mulsf3_from_thumb                             c:/asctec_arm_sdk/winarm/bin/../lib/gcc/arm-elf/4.1.1/../../../../arm-elf/lib/thumb/interwork\libg.a(errno.o)
____nedf2_change_to_arm                           c:/asctec_arm_sdk/winarm/bin/../lib/gcc/arm-elf/4.1.1/../../../../arm-elf/lib/thumb/interwork\libg.a(errno.o)
____nedf2_from_thumb                              c:/asctec_arm_sdk/winarm/bin/../lib/gcc/arm-elf/4.1.1/../../../../arm-elf/lib/thumb/interwork\libg.a(errno.o)
____subdf3_change_to_arm                          c:/asctec_arm_sdk/winarm/bin/../lib/gcc/arm-elf/4.1.1/../../../../arm-elf/lib/thumb/interwork\libg.a(errno.o)
____subdf3_from_thumb                             c:/asctec_arm_sdk/winarm/bin/../lib/gcc/arm-elf/4.1.1/../../../../arm-elf/lib/thumb/interwork\libg.a(errno.o)
____subsf3_change_to_arm                          c:/asctec_arm_sdk/winarm/bin/../lib/gcc/arm-elf/4.1.1/../../../../arm-elf/lib/thumb/interwork\libg.a(errno.o)
____subsf3_from_thumb                             c:/asctec_arm_sdk/winarm/bin/../lib/gcc/arm-elf/4.1.1/../../../../arm-elf/lib/thumb/interwork\libg.a(errno.o)
____truncdfsf2_change_to_arm                      c:/asctec_arm_sdk/winarm/bin/../lib/gcc/arm-elf/4.1.1/../../../../arm-elf/lib/thumb/interwork\libg.a(errno.o)
____truncdfsf2_from_thumb                         c:/asctec_arm_sdk/winarm/bin/../lib/gcc/arm-elf/4.1.1/../../../../arm-elf/lib/thumb/interwork\libg.a(errno.o)
____udivsi3_from_arm                              c:/asctec_arm_sdk/winarm/bin/../lib/gcc/arm-elf/4.1.1/../../../../arm-elf/lib/thumb/interwork\libg.a(errno.o)
___close_r_change_to_arm                          c:/asctec_arm_sdk/winarm/bin/../lib/gcc/arm-elf/4.1.1/../../../../arm-elf/lib/thumb/interwork\libg.a(errno.o)
___close_r_from_thumb                             c:/asctec_arm_sdk/winarm/bin/../lib/gcc/arm-elf/4.1.1/../../../../arm-elf/lib/thumb/interwork\libg.a(errno.o)
___fstat_r_change_to_arm                          c:/asctec_arm_sdk/winarm/bin/../lib/gcc/arm-elf/4.1.1/../../../../arm-elf/lib/thumb/interwork\libg.a(errno.o)
___fstat_r_from_thumb                             c:/asctec_arm_sdk/winarm/bin/../lib/gcc/arm-elf/4.1.1/../../../../arm-elf/lib/thumb/interwork\libg.a(errno.o)
___lseek_r_change_to_arm                          c:/asctec_arm_sdk/winarm/bin/../lib/gcc/arm-elf/4.1.1/../../../../arm-elf/lib/thumb/interwork\libg.a(errno.o)
___lseek_r_from_thumb                             c:/asctec_arm_sdk/winarm/bin/../lib/gcc/arm-elf/4.1.1/../../../../arm-elf/lib/thumb/interwork\libg.a(errno.o)
___read_r_change_to_arm                           c:/asctec_arm_sdk/winarm/bin/../lib/gcc/arm-elf/4.1.1/../../../../arm-elf/lib/thumb/interwork\libg.a(errno.o)
___read_r_from_thumb                              c:/asctec_arm_sdk/winarm/bin/../lib/gcc/arm-elf/4.1.1/../../../../arm-elf/lib/thumb/interwork\libg.a(errno.o)
___sbrk_r_change_to_arm                           c:/asctec_arm_sdk/winarm/bin/../lib/gcc/arm-elf/4.1.1/../../../../arm-elf/lib/thumb/interwork\libg.a(errno.o)
___sbrk_r_from_thumb                              c:/asctec_arm_sdk/winarm/bin/../lib/gcc/arm-elf/4.1.1/../../../../arm-elf/lib/thumb/interwork\libg.a(errno.o)
___write_r_change_to_arm                          c:/asctec_arm_sdk/winarm/bin/../lib/gcc/arm-elf/4.1.1/../../../../arm-elf/lib/thumb/interwork\libg.a(errno.o)
___write_r_from_thumb                             c:/asctec_arm_sdk/winarm/bin/../lib/gcc/arm-elf/4.1.1/../../../../arm-elf/lib/thumb/interwork\libg.a(errno.o)
__adddf3                                          c:/asctec_arm_sdk/winarm/bin/../lib/gcc/arm-elf/4.1.1/thumb/interwork\libgcc.a(_addsubdf3.o)
                                                  c:/asctec_arm_sdk/winarm/bin/../lib/gcc/arm-elf/4.1.1/../../../../arm-elf/lib/thumb/interwork\libm.a(s_scalbn.o)
                                                  c:/asctec_arm_sdk/winarm/bin/../lib/gcc/arm-elf/4.1.1/../../../../arm-elf/lib/thumb/interwork\libm.a(s_rint.o)
                                                  c:/asctec_arm_sdk/winarm/bin/../lib/gcc/arm-elf/4.1.1/../../../../arm-elf/lib/thumb/interwork\libm.a(s_floor.o)
                                                  c:/asctec_arm_sdk/winarm/bin/../lib/gcc/arm-elf/4.1.1/../../../../arm-elf/lib/thumb/interwork\libm.a(s_atan.o)
                                                  c:/asctec_arm_sdk/winarm/bin/../lib/gcc/arm-elf/4.1.1/../../../../arm-elf/lib/thumb/interwork\libm.a(k_sin.o)
                                                  c:/asctec_arm_sdk/winarm/bin/../lib/gcc/arm-elf/4.1.1/../../../../arm-elf/lib/thumb/interwork\libm.a(k_rem_pio2.o)
                                                  c:/asctec_arm_sdk/winarm/bin/../lib/gcc/arm-elf/4.1.1/../../../../arm-elf/lib/thumb/interwork\libm.a(k_cos.o)
                                                  c:/asctec_arm_sdk/winarm/bin/../lib/gcc/arm-elf/4.1.1/../../../../arm-elf/lib/thumb/interwork\libm.a(e_sqrt.o)
                                                  c:/asctec_arm_sdk/winarm/bin/../lib/gcc/arm-elf/4.1.1/../../../../arm-elf/lib/thumb/interwork\libm.a(e_rem_pio2.o)
                                                  c:/asctec_arm_sdk/winarm/bin/../lib/gcc/arm-elf/4.1.1/../../../../arm-elf/lib/thumb/interwork\libm.a(e_pow.o)
                                                  c:/asctec_arm_sdk/winarm/bin/../lib/gcc/arm-elf/4.1.1/../../../../arm-elf/lib/thumb/interwork\libm.a(e_atan2.o)
                                                  ./\libdeclination.a(declination.o)
                                                  c:/asctec_arm_sdk/winarm/bin/../lib/gcc/arm-elf/4.1.1/../../../../arm-elf/lib/thumb/interwork\libc.a(dtoa.o)
                                                  Utilites.o
                                                  lab.o
                                                  gpsmath.o
__addsf3                                          c:/asctec_arm_sdk/winarm/bin/../lib/gcc/arm-elf/4.1.1/thumb/interwork\libgcc.a(_addsubsf3.o)
                                                  c:/asctec_arm_sdk/winarm/bin/../lib/gcc/arm-elf/4.1.1/../../../../arm-elf/lib/thumb/interwork\libm.a(sf_scalbn.o)
                                                  c:/asctec_arm_sdk/winarm/bin/../lib/gcc/arm-elf/4.1.1/../../../../arm-elf/lib/thumb/interwork\libm.a(ef_sqrt.o)
                                                  c:/asctec_arm_sdk/winarm/bin/../lib/gcc/arm-elf/4.1.1/../../../../arm-elf/lib/thumb/interwork\libm.a(ef_pow.o)
                                                  ./\libdeclination.a(declination.o)
                                                  Utilites.o
__aeabi_cdcmpeq                                   c:/asctec_arm_sdk/winarm/bin/../lib/gcc/arm-elf/4.1.1/thumb/interwork\libgcc.a(_cmpdf2.o)
__aeabi_cdcmple                                   c:/asctec_arm_sdk/winarm/bin/../lib/gcc/arm-elf/4.1.1/thumb/interwork\libgcc.a(_cmpdf2.o)
__aeabi_cdrcmple                                  c:/asctec_arm_sdk/winarm/bin/../lib/gcc/arm-elf/4.1.1/thumb/interwork\libgcc.a(_cmpdf2.o)
__aeabi_cfcmpeq                                   c:/asctec_arm_sdk/winarm/bin/../lib/gcc/arm-elf/4.1.1/thumb/interwork\libgcc.a(_cmpsf2.o)
__aeabi_cfcmple                                   c:/asctec_arm_sdk/winarm/bin/../lib/gcc/arm-elf/4.1.1/thumb/interwork\libgcc.a(_cmpsf2.o)
__aeabi_cfrcmple                                  c:/asctec_arm_sdk/winarm/bin/../lib/gcc/arm-elf/4.1.1/thumb/interwork\libgcc.a(_cmpsf2.o)
__aeabi_d2f                                       c:/asctec_arm_sdk/winarm/bin/../lib/gcc/arm-elf/4.1.1/thumb/interwork\libgcc.a(_truncdfsf2.o)
__aeabi_d2iz                                      c:/asctec_arm_sdk/winarm/bin/../lib/gcc/arm-elf/4.1.1/thumb/interwork\libgcc.a(_fixdfsi.o)
__aeabi_dadd                                      c:/asctec_arm_sdk/winarm/bin/../lib/gcc/arm-elf/4.1.1/thumb/interwork\libgcc.a(_addsubdf3.o)
__aeabi_dcmpeq                                    c:/asctec_arm_sdk/winarm/bin/../lib/gcc/arm-elf/4.1.1/thumb/interwork\libgcc.a(_cmpdf2.o)
__aeabi_dcmpge                                    c:/asctec_arm_sdk/winarm/bin/../lib/gcc/arm-elf/4.1.1/thumb/interwork\libgcc.a(_cmpdf2.o)
__aeabi_dcmpgt                                    c:/asctec_arm_sdk/winarm/bin/../lib/gcc/arm-elf/4.1.1/thumb/interwork\libgcc.a(_cmpdf2.o)
__aeabi_dcmple                                    c:/asctec_arm_sdk/winarm/bin/../lib/gcc/arm-elf/4.1.1/thumb/interwork\libgcc.a(_cmpdf2.o)
__aeabi_dcmplt                                    c:/asctec_arm_sdk/winarm/bin/../lib/gcc/arm-elf/4.1.1/thumb/interwork\libgcc.a(_cmpdf2.o)
__aeabi_ddiv                                      c:/asctec_arm_sdk/winarm/bin/../lib/gcc/arm-elf/4.1.1/thumb/interwork\libgcc.a(_muldivdf3.o)
__aeabi_dmul                                      c:/asctec_arm_sdk/winarm/bin/../lib/gcc/arm-elf/4.1.1/thumb/interwork\libgcc.a(_muldivdf3.o)
__aeabi_drsub                                     c:/asctec_arm_sdk/winarm/bin/../lib/gcc/arm-elf/4.1.1/thumb/interwork\libgcc.a(_addsubdf3.o)
__aeabi_dsub                                      c:/asctec_arm_sdk/winarm/bin/../lib/gcc/arm-elf/4.1.1/thumb/interwork\libgcc.a(_addsubdf3.o)
__aeabi_f2d                                       c:/asctec_arm_sdk/winarm/bin/../lib/gcc/arm-elf/4.1.1/thumb/interwork\libgcc.a(_addsubdf3.o)
__aeabi_f2iz                                      c:/asctec_arm_sdk/winarm/bin/../lib/gcc/arm-elf/4.1.1/thumb/interwork\libgcc.a(_fixsfsi.o)
__aeabi_f2uiz                                     c:/asctec_arm_sdk/winarm/bin/../lib/gcc/arm-elf/4.1.1/thumb/interwork\libgcc.a(_fixunssfsi.o)
__aeabi_fadd                                      c:/asctec_arm_sdk/winarm/bin/../lib/gcc/arm-elf/4.1.1/thumb/interwork\libgcc.a(_addsubsf3.o)
__aeabi_fcmpeq                                    c:/asctec_arm_sdk/winarm/bin/../lib/gcc/arm-elf/4.1.1/thumb/interwork\libgcc.a(_cmpsf2.o)
__aeabi_fcmpge                                    c:/asctec_arm_sdk/winarm/bin/../lib/gcc/arm-elf/4.1.1/thumb/interwork\libgcc.a(_cmpsf2.o)
__aeabi_fcmpgt                                    c:/asctec_arm_sdk/winarm/bin/../lib/gcc/arm-elf/4.1.1/thumb/interwork\libgcc.a(_cmpsf2.o)
__aeabi_fcmple                                    c:/asctec_arm_sdk/winarm/bin/../lib/gcc/arm-elf/4.1.1/thumb/interwork\libgcc.a(_cmpsf2.o)
__aeabi_fcmplt                                    c:/asctec_arm_sdk/winarm/bin/../lib/gcc/arm-elf/4.1.1/thumb/interwork\libgcc.a(_cmpsf2.o)
__aeabi_fdiv                                      c:/asctec_arm_sdk/winarm/bin/../lib/gcc/arm-elf/4.1.1/thumb/interwork\libgcc.a(_muldivsf3.o)
__aeabi_fmul                                      c:/asctec_arm_sdk/winarm/bin/../lib/gcc/arm-elf/4.1.1/thumb/interwork\libgcc.a(_muldivsf3.o)
__aeabi_frsub                                     c:/asctec_arm_sdk/winarm/bin/../lib/gcc/arm-elf/4.1.1/thumb/interwork\libgcc.a(_addsubsf3.o)
__aeabi_fsub                                      c:/asctec_arm_sdk/winarm/bin/../lib/gcc/arm-elf/4.1.1/thumb/interwork\libgcc.a(_addsubsf3.o)
__aeabi_i2d                                       c:/asctec_arm_sdk/winarm/bin/../lib/gcc/arm-elf/4.1.1/thumb/interwork\libgcc.a(_addsubdf3.o)
__aeabi_i2f                                       c:/asctec_arm_sdk/winarm/bin/../lib/gcc/arm-elf/4.1.1/thumb/interwork\libgcc.a(_addsubsf3.o)
__aeabi_idiv                                      c:/asctec_arm_sdk/winarm/bin/../lib/gcc/arm-elf/4.1.1/thumb/interwork\libgcc.a(_divsi3.o)
__aeabi_idiv0                                     c:/asctec_arm_sdk/winarm/bin/../lib/gcc/arm-elf/4.1.1/thumb/interwork\libgcc.a(_dvmd_tls.o)
__aeabi_idivmod                                   c:/asctec_arm_sdk/winarm/bin/../lib/gcc/arm-elf/4.1.1/thumb/interwork\libgcc.a(_divsi3.o)
__aeabi_l2d                                       c:/asctec_arm_sdk/winarm/bin/../lib/gcc/arm-elf/4.1.1/thumb/interwork\libgcc.a(_addsubdf3.o)
__aeabi_l2f                                       c:/asctec_arm_sdk/winarm/bin/../lib/gcc/arm-elf/4.1.1/thumb/interwork\libgcc.a(_addsubsf3.o)
__aeabi_ldiv0                                     c:/asctec_arm_sdk/winarm/bin/../lib/gcc/arm-elf/4.1.1/thumb/interwork\libgcc.a(_dvmd_tls.o)
__aeabi_ui2d                                      c:/asctec_arm_sdk/winarm/bin/../lib/gcc/arm-elf/4.1.1/thumb/interwork\libgcc.a(_addsubdf3.o)
__aeabi_ui2f                                      c:/asctec_arm_sdk/winarm/bin/../lib/gcc/arm-elf/4.1.1/thumb/interwork\libgcc.a(_addsubsf3.o)
__aeabi_uidiv                                     c:/asctec_arm_sdk/winarm/bin/../lib/gcc/arm-elf/4.1.1/thumb/interwork\libgcc.a(_udivsi3.o)
__aeabi_uidivmod                                  c:/asctec_arm_sdk/winarm/bin/../lib/gcc/arm-elf/4.1.1/thumb/interwork\libgcc.a(_udivsi3.o)
__aeabi_ul2d                                      c:/asctec_arm_sdk/winarm/bin/../lib/gcc/arm-elf/4.1.1/thumb/interwork\libgcc.a(_addsubdf3.o)
__aeabi_ul2f                                      c:/asctec_arm_sdk/winarm/bin/../lib/gcc/arm-elf/4.1.1/thumb/interwork\libgcc.a(_addsubsf3.o)
__atan2_from_arm                                  c:/asctec_arm_sdk/winarm/bin/../lib/gcc/arm-elf/4.1.1/../../../../arm-elf/lib/thumb/interwork\libg.a(errno.o)
__bss_end__                                       Common_WinARM/src/Startup.o
__bss_start__                                     Common_WinARM/src/Startup.o
__cmpdf2                                          c:/asctec_arm_sdk/winarm/bin/../lib/gcc/arm-elf/4.1.1/thumb/interwork\libgcc.a(_cmpdf2.o)
__cmpsf2                                          c:/asctec_arm_sdk/winarm/bin/../lib/gcc/arm-elf/4.1.1/thumb/interwork\libgcc.a(_cmpsf2.o)
__cos_from_arm                                    c:/asctec_arm_sdk/winarm/bin/../lib/gcc/arm-elf/4.1.1/../../../../arm-elf/lib/thumb/interwork\libg.a(errno.o)
__ctors_end__                                     Common_WinARM/src/Startup.o
__ctors_start__                                   Common_WinARM/src/Startup.o
__div0                                            c:/asctec_arm_sdk/winarm/bin/../lib/gcc/arm-elf/4.1.1/thumb/interwork\libgcc.a(_dvmd_tls.o)
                                                  c:/asctec_arm_sdk/winarm/bin/../lib/gcc/arm-elf/4.1.1/thumb/interwork\libgcc.a(_modsi3.o)
                                                  c:/asctec_arm_sdk/winarm/bin/../lib/gcc/arm-elf/4.1.1/thumb/interwork\libgcc.a(_umodsi3.o)
                                                  c:/asctec_arm_sdk/winarm/bin/../lib/gcc/arm-elf/4.1.1/thumb/interwork\libgcc.a(_divsi3.o)
                                                  c:/asctec_arm_sdk/winarm/bin/../lib/gcc/arm-elf/4.1.1/thumb/interwork\libgcc.a(_udivsi3.o)
__divdf3                                          c:/asctec_arm_sdk/winarm/bin/../lib/gcc/arm-elf/4.1.1/thumb/interwork\libgcc.a(_muldivdf3.o)
                                                  c:/asctec_arm_sdk/winarm/bin/../lib/gcc/arm-elf/4.1.1/../../../../arm-elf/lib/thumb/interwork\libm.a(s_atan.o)
                                                  c:/asctec_arm_sdk/winarm/bin/../lib/gcc/arm-elf/4.1.1/../../../../arm-elf/lib/thumb/interwork\libm.a(e_sqrt.o)
                                                  c:/asctec_arm_sdk/winarm/bin/../lib/gcc/arm-elf/4.1.1/../../../../arm-elf/lib/thumb/interwork\libm.a(e_pow.o)
                                                  c:/asctec_arm_sdk/winarm/bin/../lib/gcc/arm-elf/4.1.1/../../../../arm-elf/lib/thumb/interwork\libm.a(e_atan2.o)
                                                  c:/asctec_arm_sdk/winarm/bin/../lib/gcc/arm-elf/4.1.1/../../../../arm-elf/lib/thumb/interwork\libm.a(wf_pow.o)
                                                  c:/asctec_arm_sdk/winarm/bin/../lib/gcc/arm-elf/4.1.1/../../../../arm-elf/lib/thumb/interwork\libm.a(wf_fmod.o)
                                                  c:/asctec_arm_sdk/winarm/bin/../lib/gcc/arm-elf/4.1.1/../../../../arm-elf/lib/thumb/interwork\libm.a(w_sqrt.o)
                                                  c:/asctec_arm_sdk/winarm/bin/../lib/gcc/arm-elf/4.1.1/../../../../arm-elf/lib/thumb/interwork\libm.a(w_pow.o)
                                                  ./\libdeclination.a(declination.o)
                                                  c:/asctec_arm_sdk/winarm/bin/../lib/gcc/arm-elf/4.1.1/../../../../arm-elf/lib/thumb/interwork\libc.a(mprec.o)
                                                  c:/asctec_arm_sdk/winarm/bin/../lib/gcc/arm-elf/4.1.1/../../../../arm-elf/lib/thumb/interwork\libc.a(dtoa.o)
                                                  lab.o
                                                  sdk.o
                                                  gpsmath.o
__divsf3                                          c:/asctec_arm_sdk/winarm/bin/../lib/gcc/arm-elf/4.1.1/thumb/interwork\libgcc.a(_muldivsf3.o)
                                                  c:/asctec_arm_sdk/winarm/bin/../lib/gcc/arm-elf/4.1.1/../../../../arm-elf/lib/thumb/interwork\libm.a(ef_sqrt.o)
                                                  c:/asctec_arm_sdk/winarm/bin/../lib/gcc/arm-elf/4.1.1/../../../../arm-elf/lib/thumb/interwork\libm.a(ef_pow.o)
                                                  c:/asctec_arm_sdk/winarm/bin/../lib/gcc/arm-elf/4.1.1/../../../../arm-elf/lib/thumb/interwork\libm.a(ef_fmod.o)
                                                  ./\libdeclination.a(declination.o)
                                                  Utilites.o
__divsi3                                          c:/asctec_arm_sdk/winarm/bin/../lib/gcc/arm-elf/4.1.1/thumb/interwork\libgcc.a(_divsi3.o)
                                                  c:/asctec_arm_sdk/winarm/bin/../lib/gcc/arm-elf/4.1.1/../../../../arm-elf/lib/thumb/interwork\libm.a(k_rem_pio2.o)
                                                  ./\libdeclination.a(declination.o)
                                                  c:/asctec_arm_sdk/winarm/bin/../lib/gcc/arm-elf/4.1.1/../../../../arm-elf/lib/thumb/interwork\libc.a(mprec.o)
                                                  c:/asctec_arm_sdk/winarm/bin/../lib/gcc/arm-elf/4.1.1/../../../../arm-elf/lib/thumb/interwork\libc.a(vfprintf.o)
                                                  mymath.o
__eqdf2                                           c:/asctec_arm_sdk/winarm/bin/../lib/gcc/arm-elf/4.1.1/thumb/interwork\libgcc.a(_cmpdf2.o)
                                                  c:/asctec_arm_sdk/winarm/bin/../lib/gcc/arm-elf/4.1.1/../../../../arm-elf/lib/thumb/interwork\libm.a(k_rem_pio2.o)
                                                  c:/asctec_arm_sdk/winarm/bin/../lib/gcc/arm-elf/4.1.1/../../../../arm-elf/lib/thumb/interwork\libm.a(e_rem_pio2.o)
                                                  c:/asctec_arm_sdk/winarm/bin/../lib/gcc/arm-elf/4.1.1/../../../../arm-elf/lib/thumb/interwork\libm.a(w_pow.o)
                                                  c:/asctec_arm_sdk/winarm/bin/../lib/gcc/arm-elf/4.1.1/../../../../arm-elf/lib/thumb/interwork\libm.a(w_atan2.o)
                                                  c:/asctec_arm_sdk/winarm/bin/../lib/gcc/arm-elf/4.1.1/../../../../arm-elf/lib/thumb/interwork\libc.a(dtoa.o)
                                                  c:/asctec_arm_sdk/winarm/bin/../lib/gcc/arm-elf/4.1.1/../../../../arm-elf/lib/thumb/interwork\libc.a(vfprintf.o)
__eqsf2                                           c:/asctec_arm_sdk/winarm/bin/../lib/gcc/arm-elf/4.1.1/thumb/interwork\libgcc.a(_cmpsf2.o)
                                                  c:/asctec_arm_sdk/winarm/bin/../lib/gcc/arm-elf/4.1.1/../../../../arm-elf/lib/thumb/interwork\libm.a(wf_pow.o)
                                                  c:/asctec_arm_sdk/winarm/bin/../lib/gcc/arm-elf/4.1.1/../../../../arm-elf/lib/thumb/interwork\libm.a(wf_fmod.o)
                                                  ./\libdeclination.a(declination.o)
__errno                                           c:/asctec_arm_sdk/winarm/bin/../lib/gcc/arm-elf/4.1.1/../../../../arm-elf/lib/thumb/interwork\libg.a(errno.o)
                                                  c:/asctec_arm_sdk/winarm/bin/../lib/gcc/arm-elf/4.1.1/../../../../arm-elf/lib/thumb/interwork\libm.a(wf_pow.o)
                                                  c:/asctec_arm_sdk/winarm/bin/../lib/gcc/arm-elf/4.1.1/../../../../arm-elf/lib/thumb/interwork\libm.a(wf_fmod.o)
                                                  c:/asctec_arm_sdk/winarm/bin/../lib/gcc/arm-elf/4.1.1/../../../../arm-elf/lib/thumb/interwork\libm.a(w_sqrt.o)
                                                  c:/asctec_arm_sdk/winarm/bin/../lib/gcc/arm-elf/4.1.1/../../../../arm-elf/lib/thumb/interwork\libm.a(w_pow.o)
                                                  c:/asctec_arm_sdk/winarm/bin/../lib/gcc/arm-elf/4.1.1/../../../../arm-elf/lib/thumb/interwork\libm.a(w_atan2.o)
__exit_ARM                                        Common_WinARM/src/Startup.o
__exit_THUMB                                      Common_WinARM/src/Startup.o
__extendsfdf2                                     c:/asctec_arm_sdk/winarm/bin/../lib/gcc/arm-elf/4.1.1/thumb/interwork\libgcc.a(_addsubdf3.o)
                                                  c:/asctec_arm_sdk/winarm/bin/../lib/gcc/arm-elf/4.1.1/../../../../arm-elf/lib/thumb/interwork\libm.a(wf_pow.o)
                                                  c:/asctec_arm_sdk/winarm/bin/../lib/gcc/arm-elf/4.1.1/../../../../arm-elf/lib/thumb/interwork\libm.a(wf_fmod.o)
                                                  ./\libdeclination.a(declination.o)
                                                  Utilites.o
                                                  lab.o
                                                  sdk.o
__fdlib_version                                   c:/asctec_arm_sdk/winarm/bin/../lib/gcc/arm-elf/4.1.1/../../../../arm-elf/lib/thumb/interwork\libm.a(s_lib_ver.o)
                                                  c:/asctec_arm_sdk/winarm/bin/../lib/gcc/arm-elf/4.1.1/../../../../arm-elf/lib/thumb/interwork\libm.a(wf_pow.o)
                                                  c:/asctec_arm_sdk/winarm/bin/../lib/gcc/arm-elf/4.1.1/../../../../arm-elf/lib/thumb/interwork\libm.a(wf_fmod.o)
                                                  c:/asctec_arm_sdk/winarm/bin/../lib/gcc/arm-elf/4.1.1/../../../../arm-elf/lib/thumb/interwork\libm.a(w_sqrt.o)
                                                  c:/asctec_arm_sdk/winarm/bin/../lib/gcc/arm-elf/4.1.1/../../../../arm-elf/lib/thumb/interwork\libm.a(w_pow.o)
                                                  c:/asctec_arm_sdk/winarm/bin/../lib/gcc/arm-elf/4.1.1/../../../../arm-elf/lib/thumb/interwork\libm.a(w_atan2.o)
__fixdfsi                                         c:/asctec_arm_sdk/winarm/bin/../lib/gcc/arm-elf/4.1.1/thumb/interwork\libgcc.a(_fixdfsi.o)
                                                  c:/asctec_arm_sdk/winarm/bin/../lib/gcc/arm-elf/4.1.1/../../../../arm-elf/lib/thumb/interwork\libm.a(k_sin.o)
                                                  c:/asctec_arm_sdk/winarm/bin/../lib/gcc/arm-elf/4.1.1/../../../../arm-elf/lib/thumb/interwork\libm.a(k_rem_pio2.o)
                                                  c:/asctec_arm_sdk/winarm/bin/../lib/gcc/arm-elf/4.1.1/../../../../arm-elf/lib/thumb/interwork\libm.a(k_cos.o)
                                                  c:/asctec_arm_sdk/winarm/bin/../lib/gcc/arm-elf/4.1.1/../../../../arm-elf/lib/thumb/interwork\libm.a(e_rem_pio2.o)
                                                  ./\libdeclination.a(declination.o)
                                                  c:/asctec_arm_sdk/winarm/bin/../lib/gcc/arm-elf/4.1.1/../../../../arm-elf/lib/thumb/interwork\libc.a(dtoa.o)
                                                  sdk.o
__fixsfsi                                         c:/asctec_arm_sdk/winarm/bin/../lib/gcc/arm-elf/4.1.1/thumb/interwork\libgcc.a(_fixsfsi.o)
                                                  ./\libdeclination.a(declination.o)
__fixunssfsi                                      c:/asctec_arm_sdk/winarm/bin/../lib/gcc/arm-elf/4.1.1/thumb/interwork\libgcc.a(_fixunssfsi.o)
                                                  lab.o
__floatdidf                                       c:/asctec_arm_sdk/winarm/bin/../lib/gcc/arm-elf/4.1.1/thumb/interwork\libgcc.a(_addsubdf3.o)
__floatdisf                                       c:/asctec_arm_sdk/winarm/bin/../lib/gcc/arm-elf/4.1.1/thumb/interwork\libgcc.a(_addsubsf3.o)
__floatsidf                                       c:/asctec_arm_sdk/winarm/bin/../lib/gcc/arm-elf/4.1.1/thumb/interwork\libgcc.a(_addsubdf3.o)
                                                  c:/asctec_arm_sdk/winarm/bin/../lib/gcc/arm-elf/4.1.1/../../../../arm-elf/lib/thumb/interwork\libm.a(k_rem_pio2.o)
                                                  c:/asctec_arm_sdk/winarm/bin/../lib/gcc/arm-elf/4.1.1/../../../../arm-elf/lib/thumb/interwork\libm.a(e_rem_pio2.o)
                                                  c:/asctec_arm_sdk/winarm/bin/../lib/gcc/arm-elf/4.1.1/../../../../arm-elf/lib/thumb/interwork\libm.a(e_pow.o)
                                                  c:/asctec_arm_sdk/winarm/bin/../lib/gcc/arm-elf/4.1.1/../../../../arm-elf/lib/thumb/interwork\libc.a(dtoa.o)
                                                  Utilites.o
                                                  sdk.o
__floatsisf                                       c:/asctec_arm_sdk/winarm/bin/../lib/gcc/arm-elf/4.1.1/thumb/interwork\libgcc.a(_addsubsf3.o)
                                                  c:/asctec_arm_sdk/winarm/bin/../lib/gcc/arm-elf/4.1.1/../../../../arm-elf/lib/thumb/interwork\libm.a(ef_pow.o)
                                                  ./\libdeclination.a(declination.o)
                                                  Utilites.o
                                                  sdk.o
__floatundidf                                     c:/asctec_arm_sdk/winarm/bin/../lib/gcc/arm-elf/4.1.1/thumb/interwork\libgcc.a(_addsubdf3.o)
__floatundisf                                     c:/asctec_arm_sdk/winarm/bin/../lib/gcc/arm-elf/4.1.1/thumb/interwork\libgcc.a(_addsubsf3.o)
__floatunsidf                                     c:/asctec_arm_sdk/winarm/bin/../lib/gcc/arm-elf/4.1.1/thumb/interwork\libgcc.a(_addsubdf3.o)
__floatunsisf                                     c:/asctec_arm_sdk/winarm/bin/../lib/gcc/arm-elf/4.1.1/thumb/interwork\libgcc.a(_addsubsf3.o)
__fmodf_from_arm                                  c:/asctec_arm_sdk/winarm/bin/../lib/gcc/arm-elf/4.1.1/../../../../arm-elf/lib/thumb/interwork\libg.a(errno.o)
__fp_lock_all                                     c:/asctec_arm_sdk/winarm/bin/../lib/gcc/arm-elf/4.1.1/../../../../arm-elf/lib/thumb/interwork\libc.a(findfp.o)
__fp_unlock_all                                   c:/asctec_arm_sdk/winarm/bin/../lib/gcc/arm-elf/4.1.1/../../../../arm-elf/lib/thumb/interwork\libc.a(findfp.o)
__gedf2                                           c:/asctec_arm_sdk/winarm/bin/../lib/gcc/arm-elf/4.1.1/thumb/interwork\libgcc.a(_cmpdf2.o)
                                                  c:/asctec_arm_sdk/winarm/bin/../lib/gcc/arm-elf/4.1.1/../../../../arm-elf/lib/thumb/interwork\libm.a(k_rem_pio2.o)
                                                  c:/asctec_arm_sdk/winarm/bin/../lib/gcc/arm-elf/4.1.1/../../../../arm-elf/lib/thumb/interwork\libc.a(dtoa.o)
__gesf2                                           c:/asctec_arm_sdk/winarm/bin/../lib/gcc/arm-elf/4.1.1/thumb/interwork\libgcc.a(_cmpsf2.o)
                                                  ./\libdeclination.a(declination.o)
__gtdf2                                           c:/asctec_arm_sdk/winarm/bin/../lib/gcc/arm-elf/4.1.1/thumb/interwork\libgcc.a(_cmpdf2.o)
                                                  c:/asctec_arm_sdk/winarm/bin/../lib/gcc/arm-elf/4.1.1/../../../../arm-elf/lib/thumb/interwork\libm.a(s_floor.o)
                                                  c:/asctec_arm_sdk/winarm/bin/../lib/gcc/arm-elf/4.1.1/../../../../arm-elf/lib/thumb/interwork\libm.a(s_atan.o)
                                                  c:/asctec_arm_sdk/winarm/bin/../lib/gcc/arm-elf/4.1.1/../../../../arm-elf/lib/thumb/interwork\libm.a(e_pow.o)
                                                  c:/asctec_arm_sdk/winarm/bin/../lib/gcc/arm-elf/4.1.1/../../../../arm-elf/lib/thumb/interwork\libc.a(dtoa.o)
__gtsf2                                           c:/asctec_arm_sdk/winarm/bin/../lib/gcc/arm-elf/4.1.1/thumb/interwork\libgcc.a(_cmpsf2.o)
                                                  c:/asctec_arm_sdk/winarm/bin/../lib/gcc/arm-elf/4.1.1/../../../../arm-elf/lib/thumb/interwork\libm.a(ef_pow.o)
                                                  ./\libdeclination.a(declination.o)
                                                  lab.o
__ieee754_atan2                                   c:/asctec_arm_sdk/winarm/bin/../lib/gcc/arm-elf/4.1.1/../../../../arm-elf/lib/thumb/interwork\libm.a(e_atan2.o)
                                                  c:/asctec_arm_sdk/winarm/bin/../lib/gcc/arm-elf/4.1.1/../../../../arm-elf/lib/thumb/interwork\libm.a(w_atan2.o)
__ieee754_fmodf                                   c:/asctec_arm_sdk/winarm/bin/../lib/gcc/arm-elf/4.1.1/../../../../arm-elf/lib/thumb/interwork\libm.a(ef_fmod.o)
                                                  c:/asctec_arm_sdk/winarm/bin/../lib/gcc/arm-elf/4.1.1/../../../../arm-elf/lib/thumb/interwork\libm.a(wf_fmod.o)
__ieee754_pow                                     c:/asctec_arm_sdk/winarm/bin/../lib/gcc/arm-elf/4.1.1/../../../../arm-elf/lib/thumb/interwork\libm.a(e_pow.o)
                                                  c:/asctec_arm_sdk/winarm/bin/../lib/gcc/arm-elf/4.1.1/../../../../arm-elf/lib/thumb/interwork\libm.a(w_pow.o)
__ieee754_powf                                    c:/asctec_arm_sdk/winarm/bin/../lib/gcc/arm-elf/4.1.1/../../../../arm-elf/lib/thumb/interwork\libm.a(ef_pow.o)
                                                  c:/asctec_arm_sdk/winarm/bin/../lib/gcc/arm-elf/4.1.1/../../../../arm-elf/lib/thumb/interwork\libm.a(wf_pow.o)
__ieee754_rem_pio2                                c:/asctec_arm_sdk/winarm/bin/../lib/gcc/arm-elf/4.1.1/../../../../arm-elf/lib/thumb/interwork\libm.a(e_rem_pio2.o)
                                                  c:/asctec_arm_sdk/winarm/bin/../lib/gcc/arm-elf/4.1.1/../../../../arm-elf/lib/thumb/interwork\libm.a(s_sin.o)
                                                  c:/asctec_arm_sdk/winarm/bin/../lib/gcc/arm-elf/4.1.1/../../../../arm-elf/lib/thumb/interwork\libm.a(s_cos.o)
__ieee754_sqrt                                    c:/asctec_arm_sdk/winarm/bin/../lib/gcc/arm-elf/4.1.1/../../../../arm-elf/lib/thumb/interwork\libm.a(e_sqrt.o)
                                                  c:/asctec_arm_sdk/winarm/bin/../lib/gcc/arm-elf/4.1.1/../../../../arm-elf/lib/thumb/interwork\libm.a(e_pow.o)
                                                  c:/asctec_arm_sdk/winarm/bin/../lib/gcc/arm-elf/4.1.1/../../../../arm-elf/lib/thumb/interwork\libm.a(w_sqrt.o)
__ieee754_sqrtf                                   c:/asctec_arm_sdk/winarm/bin/../lib/gcc/arm-elf/4.1.1/../../../../arm-elf/lib/thumb/interwork\libm.a(ef_sqrt.o)
                                                  c:/asctec_arm_sdk/winarm/bin/../lib/gcc/arm-elf/4.1.1/../../../../arm-elf/lib/thumb/interwork\libm.a(ef_pow.o)
__isatty_change_to_arm                            c:/asctec_arm_sdk/winarm/bin/../lib/gcc/arm-elf/4.1.1/../../../../arm-elf/lib/thumb/interwork\libg.a(errno.o)
__isatty_from_thumb                               c:/asctec_arm_sdk/winarm/bin/../lib/gcc/arm-elf/4.1.1/../../../../arm-elf/lib/thumb/interwork\libg.a(errno.o)
__kernel_cos                                      c:/asctec_arm_sdk/winarm/bin/../lib/gcc/arm-elf/4.1.1/../../../../arm-elf/lib/thumb/interwork\libm.a(k_cos.o)
                                                  c:/asctec_arm_sdk/winarm/bin/../lib/gcc/arm-elf/4.1.1/../../../../arm-elf/lib/thumb/interwork\libm.a(s_sin.o)
                                                  c:/asctec_arm_sdk/winarm/bin/../lib/gcc/arm-elf/4.1.1/../../../../arm-elf/lib/thumb/interwork\libm.a(s_cos.o)
__kernel_rem_pio2                                 c:/asctec_arm_sdk/winarm/bin/../lib/gcc/arm-elf/4.1.1/../../../../arm-elf/lib/thumb/interwork\libm.a(k_rem_pio2.o)
                                                  c:/asctec_arm_sdk/winarm/bin/../lib/gcc/arm-elf/4.1.1/../../../../arm-elf/lib/thumb/interwork\libm.a(e_rem_pio2.o)
__kernel_sin                                      c:/asctec_arm_sdk/winarm/bin/../lib/gcc/arm-elf/4.1.1/../../../../arm-elf/lib/thumb/interwork\libm.a(k_sin.o)
                                                  c:/asctec_arm_sdk/winarm/bin/../lib/gcc/arm-elf/4.1.1/../../../../arm-elf/lib/thumb/interwork\libm.a(s_sin.o)
                                                  c:/asctec_arm_sdk/winarm/bin/../lib/gcc/arm-elf/4.1.1/../../../../arm-elf/lib/thumb/interwork\libm.a(s_cos.o)
__lc_ctype                                        c:/asctec_arm_sdk/winarm/bin/../lib/gcc/arm-elf/4.1.1/../../../../arm-elf/lib/thumb/interwork\libc.a(locale.o)
                                                  c:/asctec_arm_sdk/winarm/bin/../lib/gcc/arm-elf/4.1.1/../../../../arm-elf/lib/thumb/interwork\libc.a(wctomb_r.o)
__ledf2                                           c:/asctec_arm_sdk/winarm/bin/../lib/gcc/arm-elf/4.1.1/thumb/interwork\libgcc.a(_cmpdf2.o)
                                                  c:/asctec_arm_sdk/winarm/bin/../lib/gcc/arm-elf/4.1.1/../../../../arm-elf/lib/thumb/interwork\libm.a(e_pow.o)
                                                  ./\libdeclination.a(declination.o)
__lesf2                                           c:/asctec_arm_sdk/winarm/bin/../lib/gcc/arm-elf/4.1.1/thumb/interwork\libgcc.a(_cmpsf2.o)
                                                  c:/asctec_arm_sdk/winarm/bin/../lib/gcc/arm-elf/4.1.1/../../../../arm-elf/lib/thumb/interwork\libm.a(ef_pow.o)
__locale_charset                                  c:/asctec_arm_sdk/winarm/bin/../lib/gcc/arm-elf/4.1.1/../../../../arm-elf/lib/thumb/interwork\libc.a(locale.o)
__ltdf2                                           c:/asctec_arm_sdk/winarm/bin/../lib/gcc/arm-elf/4.1.1/thumb/interwork\libgcc.a(_cmpdf2.o)
                                                  c:/asctec_arm_sdk/winarm/bin/../lib/gcc/arm-elf/4.1.1/../../../../arm-elf/lib/thumb/interwork\libm.a(w_sqrt.o)
                                                  c:/asctec_arm_sdk/winarm/bin/../lib/gcc/arm-elf/4.1.1/../../../../arm-elf/lib/thumb/interwork\libm.a(w_pow.o)
                                                  c:/asctec_arm_sdk/winarm/bin/../lib/gcc/arm-elf/4.1.1/../../../../arm-elf/lib/thumb/interwork\libc.a(dtoa.o)
                                                  c:/asctec_arm_sdk/winarm/bin/../lib/gcc/arm-elf/4.1.1/../../../../arm-elf/lib/thumb/interwork\libc.a(vfprintf.o)
__ltsf2                                           c:/asctec_arm_sdk/winarm/bin/../lib/gcc/arm-elf/4.1.1/thumb/interwork\libgcc.a(_cmpsf2.o)
                                                  c:/asctec_arm_sdk/winarm/bin/../lib/gcc/arm-elf/4.1.1/../../../../arm-elf/lib/thumb/interwork\libm.a(wf_pow.o)
                                                  ./\libdeclination.a(declination.o)
                                                  lab.o
__malloc_av_                                      c:/asctec_arm_sdk/winarm/bin/../lib/gcc/arm-elf/4.1.1/../../../../arm-elf/lib/thumb/interwork\libc.a(mallocr.o)
                                                  c:/asctec_arm_sdk/winarm/bin/../lib/gcc/arm-elf/4.1.1/../../../../arm-elf/lib/thumb/interwork\libc.a(reallocr.o)
                                                  c:/asctec_arm_sdk/winarm/bin/../lib/gcc/arm-elf/4.1.1/../../../../arm-elf/lib/thumb/interwork\libc.a(freer.o)
__malloc_current_mallinfo                         c:/asctec_arm_sdk/winarm/bin/../lib/gcc/arm-elf/4.1.1/../../../../arm-elf/lib/thumb/interwork\libc.a(mallocr.o)
                                                  c:/asctec_arm_sdk/winarm/bin/../lib/gcc/arm-elf/4.1.1/../../../../arm-elf/lib/thumb/interwork\libc.a(freer.o)
__malloc_lock                                     c:/asctec_arm_sdk/winarm/bin/../lib/gcc/arm-elf/4.1.1/../../../../arm-elf/lib/thumb/interwork\libc.a(mlock.o)
                                                  c:/asctec_arm_sdk/winarm/bin/../lib/gcc/arm-elf/4.1.1/../../../../arm-elf/lib/thumb/interwork\libc.a(reallocr.o)
                                                  c:/asctec_arm_sdk/winarm/bin/../lib/gcc/arm-elf/4.1.1/../../../../arm-elf/lib/thumb/interwork\libc.a(mallocr.o)
                                                  c:/asctec_arm_sdk/winarm/bin/../lib/gcc/arm-elf/4.1.1/../../../../arm-elf/lib/thumb/interwork\libc.a(freer.o)
__malloc_max_sbrked_mem                           c:/asctec_arm_sdk/winarm/bin/../lib/gcc/arm-elf/4.1.1/../../../../arm-elf/lib/thumb/interwork\libc.a(mallocr.o)
__malloc_max_total_mem                            c:/asctec_arm_sdk/winarm/bin/../lib/gcc/arm-elf/4.1.1/../../../../arm-elf/lib/thumb/interwork\libc.a(mallocr.o)
__malloc_sbrk_base                                c:/asctec_arm_sdk/winarm/bin/../lib/gcc/arm-elf/4.1.1/../../../../arm-elf/lib/thumb/interwork\libc.a(mallocr.o)
                                                  c:/asctec_arm_sdk/winarm/bin/../lib/gcc/arm-elf/4.1.1/../../../../arm-elf/lib/thumb/interwork\libc.a(freer.o)
__malloc_top_pad                                  c:/asctec_arm_sdk/winarm/bin/../lib/gcc/arm-elf/4.1.1/../../../../arm-elf/lib/thumb/interwork\libc.a(mallocr.o)
                                                  c:/asctec_arm_sdk/winarm/bin/../lib/gcc/arm-elf/4.1.1/../../../../arm-elf/lib/thumb/interwork\libc.a(freer.o)
__malloc_trim_threshold                           c:/asctec_arm_sdk/winarm/bin/../lib/gcc/arm-elf/4.1.1/../../../../arm-elf/lib/thumb/interwork\libc.a(mallocr.o)
                                                  c:/asctec_arm_sdk/winarm/bin/../lib/gcc/arm-elf/4.1.1/../../../../arm-elf/lib/thumb/interwork\libc.a(freer.o)
__malloc_unlock                                   c:/asctec_arm_sdk/winarm/bin/../lib/gcc/arm-elf/4.1.1/../../../../arm-elf/lib/thumb/interwork\libc.a(mlock.o)
                                                  c:/asctec_arm_sdk/winarm/bin/../lib/gcc/arm-elf/4.1.1/../../../../arm-elf/lib/thumb/interwork\libc.a(reallocr.o)
                                                  c:/asctec_arm_sdk/winarm/bin/../lib/gcc/arm-elf/4.1.1/../../../../arm-elf/lib/thumb/interwork\libc.a(mallocr.o)
                                                  c:/asctec_arm_sdk/winarm/bin/../lib/gcc/arm-elf/4.1.1/../../../../arm-elf/lib/thumb/interwork\libc.a(freer.o)
__mb_cur_max                                      c:/asctec_arm_sdk/winarm/bin/../lib/gcc/arm-elf/4.1.1/../../../../arm-elf/lib/thumb/interwork\libc.a(locale.o)
__mcmp                                            c:/asctec_arm_sdk/winarm/bin/../lib/gcc/arm-elf/4.1.1/../../../../arm-elf/lib/thumb/interwork\libc.a(mprec.o)
                                                  c:/asctec_arm_sdk/winarm/bin/../lib/gcc/arm-elf/4.1.1/../../../../arm-elf/lib/thumb/interwork\libc.a(dtoa.o)
__mdiff                                           c:/asctec_arm_sdk/winarm/bin/../lib/gcc/arm-elf/4.1.1/../../../../arm-elf/lib/thumb/interwork\libc.a(mprec.o)
                                                  c:/asctec_arm_sdk/winarm/bin/../lib/gcc/arm-elf/4.1.1/../../../../arm-elf/lib/thumb/interwork\libc.a(dtoa.o)
__memcpy_from_arm                                 c:/asctec_arm_sdk/winarm/bin/../lib/gcc/arm-elf/4.1.1/../../../../arm-elf/lib/thumb/interwork\libg.a(errno.o)
__mlocale_changed                                 c:/asctec_arm_sdk/winarm/bin/../lib/gcc/arm-elf/4.1.1/../../../../arm-elf/lib/thumb/interwork\libc.a(locale.o)
__modsi3                                          c:/asctec_arm_sdk/winarm/bin/../lib/gcc/arm-elf/4.1.1/thumb/interwork\libgcc.a(_modsi3.o)
                                                  c:/asctec_arm_sdk/winarm/bin/../lib/gcc/arm-elf/4.1.1/../../../../arm-elf/lib/thumb/interwork\libc.a(vfprintf.o)
__mprec_bigtens                                   c:/asctec_arm_sdk/winarm/bin/../lib/gcc/arm-elf/4.1.1/../../../../arm-elf/lib/thumb/interwork\libc.a(mprec.o)
                                                  c:/asctec_arm_sdk/winarm/bin/../lib/gcc/arm-elf/4.1.1/../../../../arm-elf/lib/thumb/interwork\libc.a(dtoa.o)
__mprec_tens                                      c:/asctec_arm_sdk/winarm/bin/../lib/gcc/arm-elf/4.1.1/../../../../arm-elf/lib/thumb/interwork\libc.a(mprec.o)
                                                  c:/asctec_arm_sdk/winarm/bin/../lib/gcc/arm-elf/4.1.1/../../../../arm-elf/lib/thumb/interwork\libc.a(dtoa.o)
__mprec_tinytens                                  c:/asctec_arm_sdk/winarm/bin/../lib/gcc/arm-elf/4.1.1/../../../../arm-elf/lib/thumb/interwork\libc.a(mprec.o)
__muldf3                                          c:/asctec_arm_sdk/winarm/bin/../lib/gcc/arm-elf/4.1.1/thumb/interwork\libgcc.a(_muldivdf3.o)
                                                  c:/asctec_arm_sdk/winarm/bin/../lib/gcc/arm-elf/4.1.1/../../../../arm-elf/lib/thumb/interwork\libm.a(s_scalbn.o)
                                                  c:/asctec_arm_sdk/winarm/bin/../lib/gcc/arm-elf/4.1.1/../../../../arm-elf/lib/thumb/interwork\libm.a(s_atan.o)
                                                  c:/asctec_arm_sdk/winarm/bin/../lib/gcc/arm-elf/4.1.1/../../../../arm-elf/lib/thumb/interwork\libm.a(k_sin.o)
                                                  c:/asctec_arm_sdk/winarm/bin/../lib/gcc/arm-elf/4.1.1/../../../../arm-elf/lib/thumb/interwork\libm.a(k_rem_pio2.o)
                                                  c:/asctec_arm_sdk/winarm/bin/../lib/gcc/arm-elf/4.1.1/../../../../arm-elf/lib/thumb/interwork\libm.a(k_cos.o)
                                                  c:/asctec_arm_sdk/winarm/bin/../lib/gcc/arm-elf/4.1.1/../../../../arm-elf/lib/thumb/interwork\libm.a(e_sqrt.o)
                                                  c:/asctec_arm_sdk/winarm/bin/../lib/gcc/arm-elf/4.1.1/../../../../arm-elf/lib/thumb/interwork\libm.a(e_rem_pio2.o)
                                                  c:/asctec_arm_sdk/winarm/bin/../lib/gcc/arm-elf/4.1.1/../../../../arm-elf/lib/thumb/interwork\libm.a(e_pow.o)
                                                  c:/asctec_arm_sdk/winarm/bin/../lib/gcc/arm-elf/4.1.1/../../../../arm-elf/lib/thumb/interwork\libm.a(w_pow.o)
                                                  ./\libdeclination.a(declination.o)
                                                  c:/asctec_arm_sdk/winarm/bin/../lib/gcc/arm-elf/4.1.1/../../../../arm-elf/lib/thumb/interwork\libc.a(mprec.o)
                                                  c:/asctec_arm_sdk/winarm/bin/../lib/gcc/arm-elf/4.1.1/../../../../arm-elf/lib/thumb/interwork\libc.a(dtoa.o)
                                                  Utilites.o
                                                  lab.o
                                                  sdk.o
                                                  gpsmath.o
__mulsf3                                          c:/asctec_arm_sdk/winarm/bin/../lib/gcc/arm-elf/4.1.1/thumb/interwork\libgcc.a(_muldivsf3.o)
                                                  c:/asctec_arm_sdk/winarm/bin/../lib/gcc/arm-elf/4.1.1/../../../../arm-elf/lib/thumb/interwork\libm.a(sf_scalbn.o)
                                                  c:/asctec_arm_sdk/winarm/bin/../lib/gcc/arm-elf/4.1.1/../../../../arm-elf/lib/thumb/interwork\libm.a(ef_sqrt.o)
                                                  c:/asctec_arm_sdk/winarm/bin/../lib/gcc/arm-elf/4.1.1/../../../../arm-elf/lib/thumb/interwork\libm.a(ef_pow.o)
                                                  c:/asctec_arm_sdk/winarm/bin/../lib/gcc/arm-elf/4.1.1/../../../../arm-elf/lib/thumb/interwork\libm.a(ef_fmod.o)
                                                  c:/asctec_arm_sdk/winarm/bin/../lib/gcc/arm-elf/4.1.1/../../../../arm-elf/lib/thumb/interwork\libm.a(wf_pow.o)
                                                  ./\libdeclination.a(declination.o)
                                                  Utilites.o
                                                  lab.o
__nedf2                                           c:/asctec_arm_sdk/winarm/bin/../lib/gcc/arm-elf/4.1.1/thumb/interwork\libgcc.a(_cmpdf2.o)
                                                  c:/asctec_arm_sdk/winarm/bin/../lib/gcc/arm-elf/4.1.1/../../../../arm-elf/lib/thumb/interwork\libm.a(wf_pow.o)
                                                  c:/asctec_arm_sdk/winarm/bin/../lib/gcc/arm-elf/4.1.1/../../../../arm-elf/lib/thumb/interwork\libm.a(w_pow.o)
                                                  c:/asctec_arm_sdk/winarm/bin/../lib/gcc/arm-elf/4.1.1/../../../../arm-elf/lib/thumb/interwork\libc.a(dtoa.o)
                                                  c:/asctec_arm_sdk/winarm/bin/../lib/gcc/arm-elf/4.1.1/../../../../arm-elf/lib/thumb/interwork\libc.a(vfprintf.o)
__nesf2                                           c:/asctec_arm_sdk/winarm/bin/../lib/gcc/arm-elf/4.1.1/thumb/interwork\libgcc.a(_cmpsf2.o)
                                                  ./\libdeclination.a(declination.o)
__nlocale_changed                                 c:/asctec_arm_sdk/winarm/bin/../lib/gcc/arm-elf/4.1.1/../../../../arm-elf/lib/thumb/interwork\libc.a(locale.o)
__pow_from_arm                                    c:/asctec_arm_sdk/winarm/bin/../lib/gcc/arm-elf/4.1.1/../../../../arm-elf/lib/thumb/interwork\libg.a(errno.o)
__powf_from_arm                                   c:/asctec_arm_sdk/winarm/bin/../lib/gcc/arm-elf/4.1.1/../../../../arm-elf/lib/thumb/interwork\libg.a(errno.o)
__putchar                                         uart.o
__sclose                                          c:/asctec_arm_sdk/winarm/bin/../lib/gcc/arm-elf/4.1.1/../../../../arm-elf/lib/thumb/interwork\libc.a(stdio.o)
                                                  c:/asctec_arm_sdk/winarm/bin/../lib/gcc/arm-elf/4.1.1/../../../../arm-elf/lib/thumb/interwork\libc.a(findfp.o)
__sfmoreglue                                      c:/asctec_arm_sdk/winarm/bin/../lib/gcc/arm-elf/4.1.1/../../../../arm-elf/lib/thumb/interwork\libc.a(findfp.o)
__sfp                                             c:/asctec_arm_sdk/winarm/bin/../lib/gcc/arm-elf/4.1.1/../../../../arm-elf/lib/thumb/interwork\libc.a(findfp.o)
__sfp_lock_acquire                                c:/asctec_arm_sdk/winarm/bin/../lib/gcc/arm-elf/4.1.1/../../../../arm-elf/lib/thumb/interwork\libc.a(findfp.o)
                                                  c:/asctec_arm_sdk/winarm/bin/../lib/gcc/arm-elf/4.1.1/../../../../arm-elf/lib/thumb/interwork\libc.a(fclose.o)
                                                  c:/asctec_arm_sdk/winarm/bin/../lib/gcc/arm-elf/4.1.1/../../../../arm-elf/lib/thumb/interwork\libc.a(fwalk.o)
__sfp_lock_release                                c:/asctec_arm_sdk/winarm/bin/../lib/gcc/arm-elf/4.1.1/../../../../arm-elf/lib/thumb/interwork\libc.a(findfp.o)
                                                  c:/asctec_arm_sdk/winarm/bin/../lib/gcc/arm-elf/4.1.1/../../../../arm-elf/lib/thumb/interwork\libc.a(fclose.o)
                                                  c:/asctec_arm_sdk/winarm/bin/../lib/gcc/arm-elf/4.1.1/../../../../arm-elf/lib/thumb/interwork\libc.a(fwalk.o)
__sfvwrite                                        c:/asctec_arm_sdk/winarm/bin/../lib/gcc/arm-elf/4.1.1/../../../../arm-elf/lib/thumb/interwork\libc.a(fvwrite.o)
                                                  c:/asctec_arm_sdk/winarm/bin/../lib/gcc/arm-elf/4.1.1/../../../../arm-elf/lib/thumb/interwork\libc.a(vfprintf.o)
__sin_from_arm                                    c:/asctec_arm_sdk/winarm/bin/../lib/gcc/arm-elf/4.1.1/../../../../arm-elf/lib/thumb/interwork\libg.a(errno.o)
__sinit                                           c:/asctec_arm_sdk/winarm/bin/../lib/gcc/arm-elf/4.1.1/../../../../arm-elf/lib/thumb/interwork\libc.a(findfp.o)
                                                  c:/asctec_arm_sdk/winarm/bin/../lib/gcc/arm-elf/4.1.1/../../../../arm-elf/lib/thumb/interwork\libc.a(fclose.o)
                                                  c:/asctec_arm_sdk/winarm/bin/../lib/gcc/arm-elf/4.1.1/../../../../arm-elf/lib/thumb/interwork\libc.a(fflush.o)
                                                  c:/asctec_arm_sdk/winarm/bin/../lib/gcc/arm-elf/4.1.1/../../../../arm-elf/lib/thumb/interwork\libc.a(wsetup.o)
                                                  c:/asctec_arm_sdk/winarm/bin/../lib/gcc/arm-elf/4.1.1/../../../../arm-elf/lib/thumb/interwork\libc.a(vfprintf.o)
__sinit_lock_acquire                              c:/asctec_arm_sdk/winarm/bin/../lib/gcc/arm-elf/4.1.1/../../../../arm-elf/lib/thumb/interwork\libc.a(findfp.o)
__sinit_lock_release                              c:/asctec_arm_sdk/winarm/bin/../lib/gcc/arm-elf/4.1.1/../../../../arm-elf/lib/thumb/interwork\libc.a(findfp.o)
__smakebuf                                        c:/asctec_arm_sdk/winarm/bin/../lib/gcc/arm-elf/4.1.1/../../../../arm-elf/lib/thumb/interwork\libc.a(makebuf.o)
                                                  c:/asctec_arm_sdk/winarm/bin/../lib/gcc/arm-elf/4.1.1/../../../../arm-elf/lib/thumb/interwork\libc.a(wsetup.o)
__sprintf_from_arm                                c:/asctec_arm_sdk/winarm/bin/../lib/gcc/arm-elf/4.1.1/../../../../arm-elf/lib/thumb/interwork\libg.a(errno.o)
__sqrt_from_arm                                   c:/asctec_arm_sdk/winarm/bin/../lib/gcc/arm-elf/4.1.1/../../../../arm-elf/lib/thumb/interwork\libg.a(errno.o)
__sread                                           c:/asctec_arm_sdk/winarm/bin/../lib/gcc/arm-elf/4.1.1/../../../../arm-elf/lib/thumb/interwork\libc.a(stdio.o)
                                                  c:/asctec_arm_sdk/winarm/bin/../lib/gcc/arm-elf/4.1.1/../../../../arm-elf/lib/thumb/interwork\libc.a(findfp.o)
__sseek                                           c:/asctec_arm_sdk/winarm/bin/../lib/gcc/arm-elf/4.1.1/../../../../arm-elf/lib/thumb/interwork\libc.a(stdio.o)
                                                  c:/asctec_arm_sdk/winarm/bin/../lib/gcc/arm-elf/4.1.1/../../../../arm-elf/lib/thumb/interwork\libc.a(makebuf.o)
                                                  c:/asctec_arm_sdk/winarm/bin/../lib/gcc/arm-elf/4.1.1/../../../../arm-elf/lib/thumb/interwork\libc.a(findfp.o)
__startup                                         Common_WinARM/src/Startup.o
__strcpy_from_arm                                 c:/asctec_arm_sdk/winarm/bin/../lib/gcc/arm-elf/4.1.1/../../../../arm-elf/lib/thumb/interwork\libg.a(errno.o)
__strlen_from_arm                                 c:/asctec_arm_sdk/winarm/bin/../lib/gcc/arm-elf/4.1.1/../../../../arm-elf/lib/thumb/interwork\libg.a(errno.o)
__subdf3                                          c:/asctec_arm_sdk/winarm/bin/../lib/gcc/arm-elf/4.1.1/thumb/interwork\libgcc.a(_addsubdf3.o)
                                                  c:/asctec_arm_sdk/winarm/bin/../lib/gcc/arm-elf/4.1.1/../../../../arm-elf/lib/thumb/interwork\libm.a(s_rint.o)
                                                  c:/asctec_arm_sdk/winarm/bin/../lib/gcc/arm-elf/4.1.1/../../../../arm-elf/lib/thumb/interwork\libm.a(s_atan.o)
                                                  c:/asctec_arm_sdk/winarm/bin/../lib/gcc/arm-elf/4.1.1/../../../../arm-elf/lib/thumb/interwork\libm.a(k_sin.o)
                                                  c:/asctec_arm_sdk/winarm/bin/../lib/gcc/arm-elf/4.1.1/../../../../arm-elf/lib/thumb/interwork\libm.a(k_rem_pio2.o)
                                                  c:/asctec_arm_sdk/winarm/bin/../lib/gcc/arm-elf/4.1.1/../../../../arm-elf/lib/thumb/interwork\libm.a(k_cos.o)
                                                  c:/asctec_arm_sdk/winarm/bin/../lib/gcc/arm-elf/4.1.1/../../../../arm-elf/lib/thumb/interwork\libm.a(e_sqrt.o)
                                                  c:/asctec_arm_sdk/winarm/bin/../lib/gcc/arm-elf/4.1.1/../../../../arm-elf/lib/thumb/interwork\libm.a(e_rem_pio2.o)
                                                  c:/asctec_arm_sdk/winarm/bin/../lib/gcc/arm-elf/4.1.1/../../../../arm-elf/lib/thumb/interwork\libm.a(e_pow.o)
                                                  c:/asctec_arm_sdk/winarm/bin/../lib/gcc/arm-elf/4.1.1/../../../../arm-elf/lib/thumb/interwork\libm.a(e_atan2.o)
                                                  c:/asctec_arm_sdk/winarm/bin/../lib/gcc/arm-elf/4.1.1/../../../../arm-elf/lib/thumb/interwork\libm.a(s_sin.o)
                                                  c:/asctec_arm_sdk/winarm/bin/../lib/gcc/arm-elf/4.1.1/../../../../arm-elf/lib/thumb/interwork\libm.a(s_cos.o)
                                                  ./\libdeclination.a(declination.o)
                                                  c:/asctec_arm_sdk/winarm/bin/../lib/gcc/arm-elf/4.1.1/../../../../arm-elf/lib/thumb/interwork\libc.a(dtoa.o)
                                                  Utilites.o
                                                  lab.o
__subsf3                                          c:/asctec_arm_sdk/winarm/bin/../lib/gcc/arm-elf/4.1.1/thumb/interwork\libgcc.a(_addsubsf3.o)
                                                  c:/asctec_arm_sdk/winarm/bin/../lib/gcc/arm-elf/4.1.1/../../../../arm-elf/lib/thumb/interwork\libm.a(ef_sqrt.o)
                                                  c:/asctec_arm_sdk/winarm/bin/../lib/gcc/arm-elf/4.1.1/../../../../arm-elf/lib/thumb/interwork\libm.a(ef_pow.o)
                                                  ./\libdeclination.a(declination.o)
                                                  Utilites.o
                                                  lab.o
__swrite                                          c:/asctec_arm_sdk/winarm/bin/../lib/gcc/arm-elf/4.1.1/../../../../arm-elf/lib/thumb/interwork\libc.a(stdio.o)
                                                  c:/asctec_arm_sdk/winarm/bin/../lib/gcc/arm-elf/4.1.1/../../../../arm-elf/lib/thumb/interwork\libc.a(findfp.o)
__swsetup                                         c:/asctec_arm_sdk/winarm/bin/../lib/gcc/arm-elf/4.1.1/../../../../arm-elf/lib/thumb/interwork\libc.a(wsetup.o)
                                                  c:/asctec_arm_sdk/winarm/bin/../lib/gcc/arm-elf/4.1.1/../../../../arm-elf/lib/thumb/interwork\libc.a(fvwrite.o)
                                                  c:/asctec_arm_sdk/winarm/bin/../lib/gcc/arm-elf/4.1.1/../../../../arm-elf/lib/thumb/interwork\libc.a(vfprintf.o)
__truncdfsf2                                      c:/asctec_arm_sdk/winarm/bin/../lib/gcc/arm-elf/4.1.1/thumb/interwork\libgcc.a(_truncdfsf2.o)
                                                  c:/asctec_arm_sdk/winarm/bin/../lib/gcc/arm-elf/4.1.1/../../../../arm-elf/lib/thumb/interwork\libm.a(wf_pow.o)
                                                  c:/asctec_arm_sdk/winarm/bin/../lib/gcc/arm-elf/4.1.1/../../../../arm-elf/lib/thumb/interwork\libm.a(wf_fmod.o)
                                                  ./\libdeclination.a(declination.o)
                                                  Utilites.o
                                                  lab.o
                                                  sdk.o
__udivsi3                                         c:/asctec_arm_sdk/winarm/bin/../lib/gcc/arm-elf/4.1.1/thumb/interwork\libgcc.a(_udivsi3.o)
                                                  c:/asctec_arm_sdk/winarm/bin/../lib/gcc/arm-elf/4.1.1/../../../../arm-elf/lib/thumb/interwork\libc.a(dtoa.o)
                                                  c:/asctec_arm_sdk/winarm/bin/../lib/gcc/arm-elf/4.1.1/../../../../arm-elf/lib/thumb/interwork\libc.a(vfprintf.o)
                                                  adc.o
                                                  uart.o
                                                  system.o
                                                  main.o
                                                  buzzer.o
__umodsi3                                         c:/asctec_arm_sdk/winarm/bin/../lib/gcc/arm-elf/4.1.1/thumb/interwork\libgcc.a(_umodsi3.o)
                                                  c:/asctec_arm_sdk/winarm/bin/../lib/gcc/arm-elf/4.1.1/../../../../arm-elf/lib/thumb/interwork\libc.a(vfprintf.o)
_b2d                                              c:/asctec_arm_sdk/winarm/bin/../lib/gcc/arm-elf/4.1.1/../../../../arm-elf/lib/thumb/interwork\libc.a(mprec.o)
_calloc_r                                         c:/asctec_arm_sdk/winarm/bin/../lib/gcc/arm-elf/4.1.1/../../../../arm-elf/lib/thumb/interwork\libc.a(callocr.o)
                                                  c:/asctec_arm_sdk/winarm/bin/../lib/gcc/arm-elf/4.1.1/../../../../arm-elf/lib/thumb/interwork\libc.a(mprec.o)
_cleanup                                          c:/asctec_arm_sdk/winarm/bin/../lib/gcc/arm-elf/4.1.1/../../../../arm-elf/lib/thumb/interwork\libc.a(findfp.o)
_cleanup_r                                        c:/asctec_arm_sdk/winarm/bin/../lib/gcc/arm-elf/4.1.1/../../../../arm-elf/lib/thumb/interwork\libc.a(findfp.o)
                                                  c:/asctec_arm_sdk/winarm/bin/../lib/gcc/arm-elf/4.1.1/../../../../arm-elf/lib/thumb/interwork\libc.a(makebuf.o)
_close_r                                          syscalls.o
                                                  c:/asctec_arm_sdk/winarm/bin/../lib/gcc/arm-elf/4.1.1/../../../../arm-elf/lib/thumb/interwork\libc.a(stdio.o)
_d2b                                              c:/asctec_arm_sdk/winarm/bin/../lib/gcc/arm-elf/4.1.1/../../../../arm-elf/lib/thumb/interwork\libc.a(mprec.o)
                                                  c:/asctec_arm_sdk/winarm/bin/../lib/gcc/arm-elf/4.1.1/../../../../arm-elf/lib/thumb/interwork\libc.a(dtoa.o)
_data                                             Common_WinARM/src/Startup.o
_dtoa_r                                           c:/asctec_arm_sdk/winarm/bin/../lib/gcc/arm-elf/4.1.1/../../../../arm-elf/lib/thumb/interwork\libc.a(dtoa.o)
                                                  c:/asctec_arm_sdk/winarm/bin/../lib/gcc/arm-elf/4.1.1/../../../../arm-elf/lib/thumb/interwork\libc.a(vfprintf.o)
_edata                                            Common_WinARM/src/Startup.o
_end                                              syscalls.o
_etext                                            Common_WinARM/src/Startup.o
_fclose_r                                         c:/asctec_arm_sdk/winarm/bin/../lib/gcc/arm-elf/4.1.1/../../../../arm-elf/lib/thumb/interwork\libc.a(fclose.o)
_free_r                                           c:/asctec_arm_sdk/winarm/bin/../lib/gcc/arm-elf/4.1.1/../../../../arm-elf/lib/thumb/interwork\libc.a(freer.o)
                                                  c:/asctec_arm_sdk/winarm/bin/../lib/gcc/arm-elf/4.1.1/../../../../arm-elf/lib/thumb/interwork\libc.a(fclose.o)
                                                  c:/asctec_arm_sdk/winarm/bin/../lib/gcc/arm-elf/4.1.1/../../../../arm-elf/lib/thumb/interwork\libc.a(reallocr.o)
                                                  c:/asctec_arm_sdk/winarm/bin/../lib/gcc/arm-elf/4.1.1/../../../../arm-elf/lib/thumb/interwork\libc.a(mallocr.o)
                                                  c:/asctec_arm_sdk/winarm/bin/../lib/gcc/arm-elf/4.1.1/../../../../arm-elf/lib/thumb/interwork\libc.a(fvwrite.o)
                                                  c:/asctec_arm_sdk/winarm/bin/../lib/gcc/arm-elf/4.1.1/../../../../arm-elf/lib/thumb/interwork\libc.a(wsetup.o)
                                                  c:/asctec_arm_sdk/winarm/bin/../lib/gcc/arm-elf/4.1.1/../../../../arm-elf/lib/thumb/interwork\libc.a(vfprintf.o)
_fstat_r                                          syscalls.o
                                                  c:/asctec_arm_sdk/winarm/bin/../lib/gcc/arm-elf/4.1.1/../../../../arm-elf/lib/thumb/interwork\libc.a(makebuf.o)
_fwalk                                            c:/asctec_arm_sdk/winarm/bin/../lib/gcc/arm-elf/4.1.1/../../../../arm-elf/lib/thumb/interwork\libc.a(fwalk.o)
                                                  c:/asctec_arm_sdk/winarm/bin/../lib/gcc/arm-elf/4.1.1/../../../../arm-elf/lib/thumb/interwork\libc.a(findfp.o)
                                                  c:/asctec_arm_sdk/winarm/bin/../lib/gcc/arm-elf/4.1.1/../../../../arm-elf/lib/thumb/interwork\libc.a(fflush.o)
_fwalk_reent                                      c:/asctec_arm_sdk/winarm/bin/../lib/gcc/arm-elf/4.1.1/../../../../arm-elf/lib/thumb/interwork\libc.a(fwalk.o)
_global_impure_ptr                                c:/asctec_arm_sdk/winarm/bin/../lib/gcc/arm-elf/4.1.1/../../../../arm-elf/lib/thumb/interwork\libc.a(impure.o)
                                                  c:/asctec_arm_sdk/winarm/bin/../lib/gcc/arm-elf/4.1.1/../../../../arm-elf/lib/thumb/interwork\libc.a(findfp.o)
                                                  c:/asctec_arm_sdk/winarm/bin/../lib/gcc/arm-elf/4.1.1/../../../../arm-elf/lib/thumb/interwork\libc.a(fflush.o)
_hi0bits                                          c:/asctec_arm_sdk/winarm/bin/../lib/gcc/arm-elf/4.1.1/../../../../arm-elf/lib/thumb/interwork\libc.a(mprec.o)
                                                  c:/asctec_arm_sdk/winarm/bin/../lib/gcc/arm-elf/4.1.1/../../../../arm-elf/lib/thumb/interwork\libc.a(dtoa.o)
_i2b                                              c:/asctec_arm_sdk/winarm/bin/../lib/gcc/arm-elf/4.1.1/../../../../arm-elf/lib/thumb/interwork\libc.a(mprec.o)
                                                  c:/asctec_arm_sdk/winarm/bin/../lib/gcc/arm-elf/4.1.1/../../../../arm-elf/lib/thumb/interwork\libc.a(dtoa.o)
_impure_ptr                                       c:/asctec_arm_sdk/winarm/bin/../lib/gcc/arm-elf/4.1.1/../../../../arm-elf/lib/thumb/interwork\libc.a(impure.o)
                                                  c:/asctec_arm_sdk/winarm/bin/../lib/gcc/arm-elf/4.1.1/../../../../arm-elf/lib/thumb/interwork\libg.a(errno.o)
                                                  c:/asctec_arm_sdk/winarm/bin/../lib/gcc/arm-elf/4.1.1/../../../../arm-elf/lib/thumb/interwork\libc.a(fclose.o)
                                                  c:/asctec_arm_sdk/winarm/bin/../lib/gcc/arm-elf/4.1.1/../../../../arm-elf/lib/thumb/interwork\libc.a(stdio.o)
                                                  c:/asctec_arm_sdk/winarm/bin/../lib/gcc/arm-elf/4.1.1/../../../../arm-elf/lib/thumb/interwork\libc.a(makebuf.o)
                                                  c:/asctec_arm_sdk/winarm/bin/../lib/gcc/arm-elf/4.1.1/../../../../arm-elf/lib/thumb/interwork\libc.a(locale.o)
                                                  c:/asctec_arm_sdk/winarm/bin/../lib/gcc/arm-elf/4.1.1/../../../../arm-elf/lib/thumb/interwork\libc.a(fvwrite.o)
                                                  c:/asctec_arm_sdk/winarm/bin/../lib/gcc/arm-elf/4.1.1/../../../../arm-elf/lib/thumb/interwork\libc.a(findfp.o)
                                                  c:/asctec_arm_sdk/winarm/bin/../lib/gcc/arm-elf/4.1.1/../../../../arm-elf/lib/thumb/interwork\libc.a(fflush.o)
                                                  c:/asctec_arm_sdk/winarm/bin/../lib/gcc/arm-elf/4.1.1/../../../../arm-elf/lib/thumb/interwork\libc.a(wsetup.o)
                                                  c:/asctec_arm_sdk/winarm/bin/../lib/gcc/arm-elf/4.1.1/../../../../arm-elf/lib/thumb/interwork\libc.a(wcsrtombs.o)
                                                  c:/asctec_arm_sdk/winarm/bin/../lib/gcc/arm-elf/4.1.1/../../../../arm-elf/lib/thumb/interwork\libc.a(wcrtomb.o)
                                                  c:/asctec_arm_sdk/winarm/bin/../lib/gcc/arm-elf/4.1.1/../../../../arm-elf/lib/thumb/interwork\libc.a(vfprintf.o)
                                                  c:/asctec_arm_sdk/winarm/bin/../lib/gcc/arm-elf/4.1.1/../../../../arm-elf/lib/thumb/interwork\libc.a(sprintf.o)
_lo0bits                                          c:/asctec_arm_sdk/winarm/bin/../lib/gcc/arm-elf/4.1.1/../../../../arm-elf/lib/thumb/interwork\libc.a(mprec.o)
_localeconv_r                                     c:/asctec_arm_sdk/winarm/bin/../lib/gcc/arm-elf/4.1.1/../../../../arm-elf/lib/thumb/interwork\libc.a(locale.o)
_lseek_r                                          syscalls.o
                                                  c:/asctec_arm_sdk/winarm/bin/../lib/gcc/arm-elf/4.1.1/../../../../arm-elf/lib/thumb/interwork\libc.a(stdio.o)
_lshift                                           c:/asctec_arm_sdk/winarm/bin/../lib/gcc/arm-elf/4.1.1/../../../../arm-elf/lib/thumb/interwork\libc.a(mprec.o)
                                                  c:/asctec_arm_sdk/winarm/bin/../lib/gcc/arm-elf/4.1.1/../../../../arm-elf/lib/thumb/interwork\libc.a(dtoa.o)
_malloc_r                                         c:/asctec_arm_sdk/winarm/bin/../lib/gcc/arm-elf/4.1.1/../../../../arm-elf/lib/thumb/interwork\libc.a(mallocr.o)
                                                  c:/asctec_arm_sdk/winarm/bin/../lib/gcc/arm-elf/4.1.1/../../../../arm-elf/lib/thumb/interwork\libc.a(callocr.o)
                                                  c:/asctec_arm_sdk/winarm/bin/../lib/gcc/arm-elf/4.1.1/../../../../arm-elf/lib/thumb/interwork\libc.a(reallocr.o)
                                                  c:/asctec_arm_sdk/winarm/bin/../lib/gcc/arm-elf/4.1.1/../../../../arm-elf/lib/thumb/interwork\libc.a(makebuf.o)
                                                  c:/asctec_arm_sdk/winarm/bin/../lib/gcc/arm-elf/4.1.1/../../../../arm-elf/lib/thumb/interwork\libc.a(findfp.o)
                                                  c:/asctec_arm_sdk/winarm/bin/../lib/gcc/arm-elf/4.1.1/../../../../arm-elf/lib/thumb/interwork\libc.a(vfprintf.o)
_malloc_trim_r                                    c:/asctec_arm_sdk/winarm/bin/../lib/gcc/arm-elf/4.1.1/../../../../arm-elf/lib/thumb/interwork\libc.a(freer.o)
_mprec_log10                                      c:/asctec_arm_sdk/winarm/bin/../lib/gcc/arm-elf/4.1.1/../../../../arm-elf/lib/thumb/interwork\libc.a(mprec.o)
_multadd                                          c:/asctec_arm_sdk/winarm/bin/../lib/gcc/arm-elf/4.1.1/../../../../arm-elf/lib/thumb/interwork\libc.a(mprec.o)
                                                  c:/asctec_arm_sdk/winarm/bin/../lib/gcc/arm-elf/4.1.1/../../../../arm-elf/lib/thumb/interwork\libc.a(dtoa.o)
_multiply                                         c:/asctec_arm_sdk/winarm/bin/../lib/gcc/arm-elf/4.1.1/../../../../arm-elf/lib/thumb/interwork\libc.a(mprec.o)
                                                  c:/asctec_arm_sdk/winarm/bin/../lib/gcc/arm-elf/4.1.1/../../../../arm-elf/lib/thumb/interwork\libc.a(dtoa.o)
_pow5mult                                         c:/asctec_arm_sdk/winarm/bin/../lib/gcc/arm-elf/4.1.1/../../../../arm-elf/lib/thumb/interwork\libc.a(mprec.o)
                                                  c:/asctec_arm_sdk/winarm/bin/../lib/gcc/arm-elf/4.1.1/../../../../arm-elf/lib/thumb/interwork\libc.a(dtoa.o)
_ratio                                            c:/asctec_arm_sdk/winarm/bin/../lib/gcc/arm-elf/4.1.1/../../../../arm-elf/lib/thumb/interwork\libc.a(mprec.o)
_read_r                                           syscalls.o
                                                  c:/asctec_arm_sdk/winarm/bin/../lib/gcc/arm-elf/4.1.1/../../../../arm-elf/lib/thumb/interwork\libc.a(stdio.o)
_realloc_r                                        c:/asctec_arm_sdk/winarm/bin/../lib/gcc/arm-elf/4.1.1/../../../../arm-elf/lib/thumb/interwork\libc.a(reallocr.o)
                                                  c:/asctec_arm_sdk/winarm/bin/../lib/gcc/arm-elf/4.1.1/../../../../arm-elf/lib/thumb/interwork\libc.a(fvwrite.o)
_s2b                                              c:/asctec_arm_sdk/winarm/bin/../lib/gcc/arm-elf/4.1.1/../../../../arm-elf/lib/thumb/interwork\libc.a(mprec.o)
_sbrk_r                                           syscalls.o
                                                  c:/asctec_arm_sdk/winarm/bin/../lib/gcc/arm-elf/4.1.1/../../../../arm-elf/lib/thumb/interwork\libc.a(mallocr.o)
                                                  c:/asctec_arm_sdk/winarm/bin/../lib/gcc/arm-elf/4.1.1/../../../../arm-elf/lib/thumb/interwork\libc.a(freer.o)
_setlocale_r                                      c:/asctec_arm_sdk/winarm/bin/../lib/gcc/arm-elf/4.1.1/../../../../arm-elf/lib/thumb/interwork\libc.a(locale.o)
_sprintf_r                                        c:/asctec_arm_sdk/winarm/bin/../lib/gcc/arm-elf/4.1.1/../../../../arm-elf/lib/thumb/interwork\libc.a(sprintf.o)
_ulp                                              c:/asctec_arm_sdk/winarm/bin/../lib/gcc/arm-elf/4.1.1/../../../../arm-elf/lib/thumb/interwork\libc.a(mprec.o)
_vfprintf_r                                       c:/asctec_arm_sdk/winarm/bin/../lib/gcc/arm-elf/4.1.1/../../../../arm-elf/lib/thumb/interwork\libc.a(vfprintf.o)
                                                  c:/asctec_arm_sdk/winarm/bin/../lib/gcc/arm-elf/4.1.1/../../../../arm-elf/lib/thumb/interwork\libc.a(sprintf.o)
_wcrtomb_r                                        c:/asctec_arm_sdk/winarm/bin/../lib/gcc/arm-elf/4.1.1/../../../../arm-elf/lib/thumb/interwork\libc.a(wcrtomb.o)
                                                  c:/asctec_arm_sdk/winarm/bin/../lib/gcc/arm-elf/4.1.1/../../../../arm-elf/lib/thumb/interwork\libc.a(wcsrtombs.o)
                                                  c:/asctec_arm_sdk/winarm/bin/../lib/gcc/arm-elf/4.1.1/../../../../arm-elf/lib/thumb/interwork\libc.a(vfprintf.o)
_wcsrtombs_r                                      c:/asctec_arm_sdk/winarm/bin/../lib/gcc/arm-elf/4.1.1/../../../../arm-elf/lib/thumb/interwork\libc.a(wcsrtombs.o)
                                                  c:/asctec_arm_sdk/winarm/bin/../lib/gcc/arm-elf/4.1.1/../../../../arm-elf/lib/thumb/interwork\libc.a(vfprintf.o)
_wctomb_r                                         c:/asctec_arm_sdk/winarm/bin/../lib/gcc/arm-elf/4.1.1/../../../../arm-elf/lib/thumb/interwork\libc.a(wctomb_r.o)
                                                  c:/asctec_arm_sdk/winarm/bin/../lib/gcc/arm-elf/4.1.1/../../../../arm-elf/lib/thumb/interwork\libc.a(wcrtomb.o)
_write_r                                          syscalls.o
                                                  c:/asctec_arm_sdk/winarm/bin/../lib/gcc/arm-elf/4.1.1/../../../../arm-elf/lib/thumb/interwork\libc.a(stdio.o)
aciAddDatatoFlashCallback                         asctecCommIntfOnboard.o
aciCmdPacketContentBuffer                         asctecCommIntfOnboard.o
aciCmdPacketContentBufferInvalidCnt               asctecCommIntfOnboard.o
aciCmdPacketContentBufferLength                   asctecCommIntfOnboard.o
aciCmdPacketContentBufferValid                    asctecCommIntfOnboard.o
aciCmdPacketMagicCode                             asctecCommIntfOnboard.o
aciCmdPacketReceived                              asctecCommIntfOnboard.o
aciCmdPacketSelect                                asctecCommIntfOnboard.o
aciCmdPacketSelectLength                          asctecCommIntfOnboard.o
aciCmdPacketSendAck                               asctecCommIntfOnboard.o
aciCmdPacketWithACK                               asctecCommIntfOnboard.o
aciCrcUpdate                                      asctecCommIntfOnboard.o
aciEngine                                         asctecCommIntfOnboard.o
                                                  main.o
aciEngineRate                                     asctecCommIntfOnboard.o
aciEngineRateCounter                              asctecCommIntfOnboard.o
aciHeartBeatCnt                                   asctecCommIntfOnboard.o
aciHeartBeatTimeout                               asctecCommIntfOnboard.o
aciInhibitPacketTransmission                      asctecCommIntfOnboard.o
aciInit                                           asctecCommIntfOnboard.o
                                                  main.o
aciListCmd                                        asctecCommIntfOnboard.o
aciListCmdCount                                   asctecCommIntfOnboard.o
aciListPar                                        asctecCommIntfOnboard.o
                                                  lpc_aci_eeprom.o
aciListParCount                                   asctecCommIntfOnboard.o
                                                  lpc_aci_eeprom.o
aciListVar                                        asctecCommIntfOnboard.o
aciListVarCount                                   asctecCommIntfOnboard.o
aciMagicCodeCmd                                   asctecCommIntfOnboard.o
aciMagicCodePar                                   asctecCommIntfOnboard.o
aciMagicCodeVar                                   asctecCommIntfOnboard.o
aciParPacketContentBuffer                         asctecCommIntfOnboard.o
aciParPacketContentBufferInvalidCnt               asctecCommIntfOnboard.o
aciParPacketContentBufferLength                   asctecCommIntfOnboard.o
aciParPacketContentBufferValid                    asctecCommIntfOnboard.o
aciParPacketMagicCode                             asctecCommIntfOnboard.o
aciParPacketRequest                               asctecCommIntfOnboard.o
aciParPacketSelect                                asctecCommIntfOnboard.o
aciParPacketSelectLength                          asctecCommIntfOnboard.o
aciParPacketSendAck                               asctecCommIntfOnboard.o
aciParamPacketReceived                            asctecCommIntfOnboard.o
aciParamSaveIt                                    asctecCommIntfOnboard.o
aciPublishCommandInt                              asctecCommIntfOnboard.o
aciPublishParameterInt                            asctecCommIntfOnboard.o
aciPublishVariableInt                             asctecCommIntfOnboard.o
                                                  main.o
aciReadDatafromFlashCallback                      asctecCommIntfOnboard.o
aciReadParafromFlashCallback                      asctecCommIntfOnboard.o
aciReadWriteEndCallback                           asctecCommIntfOnboard.o
aciReadWriteStartCallback                         asctecCommIntfOnboard.o
aciReceiveHandler                                 asctecCommIntfOnboard.o
                                                  uart.o
aciRxDataBuffer                                   asctecCommIntfOnboard.o
aciRxDataCnt                                      asctecCommIntfOnboard.o
aciRxHandleMessage                                asctecCommIntfOnboard.o
aciSaveParaCallback                               asctecCommIntfOnboard.o
aciSendSingleBuffer                               asctecCommIntfOnboard.o
aciSendSingleBufferCnt                            asctecCommIntfOnboard.o
aciSendSingleCount                                asctecCommIntfOnboard.o
aciSendSingleId                                   asctecCommIntfOnboard.o
aciSendSingleNextBufferCount                      asctecCommIntfOnboard.o
aciSendSingleStatus                               asctecCommIntfOnboard.o
aciSendSingleVarType                              asctecCommIntfOnboard.o
aciSendSingleWithAck                              asctecCommIntfOnboard.o
aciSendVar                                        asctecCommIntfOnboard.o
aciSetReadParafromFlashCallback                   asctecCommIntfOnboard.o
                                                  lpc_aci_eeprom.o
aciSetSaveParaCallback                            asctecCommIntfOnboard.o
                                                  lpc_aci_eeprom.o
aciSetStartTxCallback                             asctecCommIntfOnboard.o
                                                  main.o
aciSetWriteParatoFlashCallback                    asctecCommIntfOnboard.o
                                                  lpc_aci_eeprom.o
aciSingleSend                                     asctecCommIntfOnboard.o
aciStartTxCallback                                asctecCommIntfOnboard.o
aciSyncCmd                                        asctecCommIntfOnboard.o
                                                  main.o
aciSyncPar                                        asctecCommIntfOnboard.o
                                                  main.o
aciSyncVar                                        asctecCommIntfOnboard.o
                                                  main.o
aciTxRingBuffer                                   asctecCommIntfOnboard.o
aciTxRingBufferAddData                            asctecCommIntfOnboard.o
aciTxRingBufferByteAvailable                      asctecCommIntfOnboard.o
                                                  uart.o
aciTxRingBufferGetFreeSpace                       asctecCommIntfOnboard.o
aciTxRingBufferGetNextByte                        asctecCommIntfOnboard.o
                                                  uart.o
aciTxRingBufferReadPtr                            asctecCommIntfOnboard.o
aciTxRingBufferReset                              asctecCommIntfOnboard.o
aciTxRingBufferWritePtr                           asctecCommIntfOnboard.o
aciTxSendPacket                                   asctecCommIntfOnboard.o
aciUpdateCrc16                                    asctecCommIntfOnboard.o
aciVarPacketContentBuffer                         asctecCommIntfOnboard.o
aciVarPacketContentBufferLength                   asctecCommIntfOnboard.o
aciVarPacketCurrentSize                           asctecCommIntfOnboard.o
aciVarPacketMagicCode                             asctecCommIntfOnboard.o
aciVarPacketNumberOfVars                          asctecCommIntfOnboard.o
aciVarPacketPtrList                               asctecCommIntfOnboard.o
aciVarPacketSelect                                asctecCommIntfOnboard.o
aciVarPacketSelectLength                          asctecCommIntfOnboard.o
aciVarPacketTransmissionRate                      asctecCommIntfOnboard.o
aciVarPacketTypeList                              asctecCommIntfOnboard.o
aciVarPacketUpdated                               asctecCommIntfOnboard.o
aciWriteParatoFlashCallback                       asctecCommIntfOnboard.o
adcChannelValues                                  adc.o
                                                  main.o
angle_diff                                        Utilites.o
                                                  sdk.o
anz_param_saved                                   lpc_aci_eeprom.o
atan                                              c:/asctec_arm_sdk/winarm/bin/../lib/gcc/arm-elf/4.1.1/../../../../arm-elf/lib/thumb/interwork\libm.a(s_atan.o)
                                                  c:/asctec_arm_sdk/winarm/bin/../lib/gcc/arm-elf/4.1.1/../../../../arm-elf/lib/thumb/interwork\libm.a(e_atan2.o)
atan2                                             c:/asctec_arm_sdk/winarm/bin/../lib/gcc/arm-elf/4.1.1/../../../../arm-elf/lib/thumb/interwork\libm.a(w_atan2.o)
                                                  ./\libdeclination.a(declination.o)
baudrate1_change                                  uart.o
buildInfo                                         buildInfoSetup.o
                                                  LL_HL_comm.o
buzzer                                            buzzer.o
                                                  main.o
buzzer_handler                                    buzzer.o
                                                  main.o
buzzer_warnings                                   buzzer.o
chksum_to_check                                   uart.o
chksum_trigger                                    uart.o
cmd                                               lab.o
cnt                                               main.o
cnt_u                                             lab.o
cofactors                                         Utilites.o
content                                           lpc_aci_eeprom.o
copysign                                          c:/asctec_arm_sdk/winarm/bin/../lib/gcc/arm-elf/4.1.1/../../../../arm-elf/lib/thumb/interwork\libm.a(s_copysign.o)
                                                  c:/asctec_arm_sdk/winarm/bin/../lib/gcc/arm-elf/4.1.1/../../../../arm-elf/lib/thumb/interwork\libm.a(s_scalbn.o)
copysignf                                         c:/asctec_arm_sdk/winarm/bin/../lib/gcc/arm-elf/4.1.1/../../../../arm-elf/lib/thumb/interwork\libm.a(sf_copysign.o)
                                                  c:/asctec_arm_sdk/winarm/bin/../lib/gcc/arm-elf/4.1.1/../../../../arm-elf/lib/thumb/interwork\libm.a(sf_scalbn.o)
cos                                               c:/asctec_arm_sdk/winarm/bin/../lib/gcc/arm-elf/4.1.1/../../../../arm-elf/lib/thumb/interwork\libm.a(s_cos.o)
                                                  ./\libdeclination.a(declination.o)
                                                  gpsmath.o
crc16                                             uart.o
crc_update                                        uart.o
current_chksum                                    uart.o
data_requested                                    uart.o
data_sent_to_HL                                   ssp.o
data_sent_to_LL                                   ssp.o
                                                  LL_HL_comm.o
declinationAvailable                              ./\libdeclination.a(declination.o)
                                                  main.o
                                                  LL_HL_comm.o
delay                                             system.o
determinant                                       Utilites.o
dt                                                lab.o
ee_count                                          LPC2k_ee.o
ee_erase                                          LPC2k_ee.o
                                                  lpc_aci_eeprom.o
ee_locate                                         LPC2k_ee.o
ee_read                                           LPC2k_ee.o
ee_readn                                          LPC2k_ee.o
                                                  lpc_aci_eeprom.o
ee_write                                          LPC2k_ee.o
                                                  lpc_aci_eeprom.o
emergencyMode                                     sdk_telemetry.o
                                                  sdk.o
                                                  LL_HL_comm.o
emergencyModeUpdate                               sdk.o
                                                  LL_HL_comm.o
enter_isp                                         LPC2k_ee.o
                                                  uart.o
entry_exist                                       asctecCommIntfOnboard.o
estimatedDeclination                              ./\libdeclination.a(declination.o)
                                                  main.o
                                                  LL_HL_comm.o
estimatedInclination                              ./\libdeclination.a(declination.o)
                                                  LL_HL_comm.o
fabs                                              c:/asctec_arm_sdk/winarm/bin/../lib/gcc/arm-elf/4.1.1/../../../../arm-elf/lib/thumb/interwork\libm.a(s_fabs.o)
                                                  c:/asctec_arm_sdk/winarm/bin/../lib/gcc/arm-elf/4.1.1/../../../../arm-elf/lib/thumb/interwork\libm.a(s_atan.o)
                                                  c:/asctec_arm_sdk/winarm/bin/../lib/gcc/arm-elf/4.1.1/../../../../arm-elf/lib/thumb/interwork\libm.a(e_rem_pio2.o)
                                                  c:/asctec_arm_sdk/winarm/bin/../lib/gcc/arm-elf/4.1.1/../../../../arm-elf/lib/thumb/interwork\libm.a(e_pow.o)
                                                  c:/asctec_arm_sdk/winarm/bin/../lib/gcc/arm-elf/4.1.1/../../../../arm-elf/lib/thumb/interwork\libm.a(e_atan2.o)
fabsf                                             c:/asctec_arm_sdk/winarm/bin/../lib/gcc/arm-elf/4.1.1/../../../../arm-elf/lib/thumb/interwork\libm.a(sf_fabs.o)
                                                  c:/asctec_arm_sdk/winarm/bin/../lib/gcc/arm-elf/4.1.1/../../../../arm-elf/lib/thumb/interwork\libm.a(ef_pow.o)
fast_abs                                          mymath.o
fast_sqrt                                         mymath.o
                                                  sdk_telemetry.o
fclose                                            c:/asctec_arm_sdk/winarm/bin/../lib/gcc/arm-elf/4.1.1/../../../../arm-elf/lib/thumb/interwork\libc.a(fclose.o)
                                                  c:/asctec_arm_sdk/winarm/bin/../lib/gcc/arm-elf/4.1.1/../../../../arm-elf/lib/thumb/interwork\libc.a(findfp.o)
fflush                                            c:/asctec_arm_sdk/winarm/bin/../lib/gcc/arm-elf/4.1.1/../../../../arm-elf/lib/thumb/interwork\libc.a(fflush.o)
                                                  c:/asctec_arm_sdk/winarm/bin/../lib/gcc/arm-elf/4.1.1/../../../../arm-elf/lib/thumb/interwork\libc.a(fclose.o)
                                                  c:/asctec_arm_sdk/winarm/bin/../lib/gcc/arm-elf/4.1.1/../../../../arm-elf/lib/thumb/interwork\libc.a(fvwrite.o)
                                                  c:/asctec_arm_sdk/winarm/bin/../lib/gcc/arm-elf/4.1.1/../../../../arm-elf/lib/thumb/interwork\libc.a(vfprintf.o)
finite                                            c:/asctec_arm_sdk/winarm/bin/../lib/gcc/arm-elf/4.1.1/../../../../arm-elf/lib/thumb/interwork\libm.a(s_finite.o)
                                                  c:/asctec_arm_sdk/winarm/bin/../lib/gcc/arm-elf/4.1.1/../../../../arm-elf/lib/thumb/interwork\libm.a(w_pow.o)
finitef                                           c:/asctec_arm_sdk/winarm/bin/../lib/gcc/arm-elf/4.1.1/../../../../arm-elf/lib/thumb/interwork\libm.a(sf_finite.o)
                                                  c:/asctec_arm_sdk/winarm/bin/../lib/gcc/arm-elf/4.1.1/../../../../arm-elf/lib/thumb/interwork\libm.a(wf_pow.o)
fireFlyLedHandler                                 i2c1.o
                                                  main.o
fireflyLedEnabled                                 main.o
                                                  LL_HL_comm.o
floor                                             c:/asctec_arm_sdk/winarm/bin/../lib/gcc/arm-elf/4.1.1/../../../../arm-elf/lib/thumb/interwork\libm.a(s_floor.o)
                                                  c:/asctec_arm_sdk/winarm/bin/../lib/gcc/arm-elf/4.1.1/../../../../arm-elf/lib/thumb/interwork\libm.a(k_rem_pio2.o)
fmodf                                             c:/asctec_arm_sdk/winarm/bin/../lib/gcc/arm-elf/4.1.1/../../../../arm-elf/lib/thumb/interwork\libm.a(wf_fmod.o)
                                                  Utilites.o
g                                                 lab.o
generateBuildInfo                                 buildInfoSetup.o
                                                  main.o
geomag                                            ./\libdeclination.a(declination.o)
geomg1                                            ./\libdeclination.a(declination.o)
getDeclination                                    ./\libdeclination.a(declination.o)
                                                  main.o
gpsDataOkTrigger                                  gpsmath.o
                                                  ./\libublox.a(ublox.o)
                                                  LL_HL_comm.o
gpsHardwareStatus                                 ./\libublox.a(ublox.o)
gpsLEDTrigger                                     ./\libublox.a(ublox.o)
                                                  main.o
gps_data_temp                                     gpsmath.o
iap_entry                                         LPC2k_ee.o
imusensor                                         lab.o
                                                  sdk.o
init                                              system.o
                                                  main.o
init_VIC                                          Common_WinARM/src/irq.o
                                                  system.o
init_interrupts                                   system.o
init_ports                                        system.o
init_spi                                          system.o
init_spi1                                         system.o
init_timer0                                       system.o
install_irq                                       Common_WinARM/src/irq.o
                                                  i2c1.o
                                                  system.o
int_cnt                                           main.o
inverse                                           Utilites.o
isatty                                            syscalls.o
                                                  c:/asctec_arm_sdk/winarm/bin/../lib/gcc/arm-elf/4.1.1/../../../../arm-elf/lib/thumb/interwork\libc.a(makebuf.o)
isinf                                             c:/asctec_arm_sdk/winarm/bin/../lib/gcc/arm-elf/4.1.1/../../../../arm-elf/lib/thumb/interwork\libc.a(s_isinf.o)
                                                  c:/asctec_arm_sdk/winarm/bin/../lib/gcc/arm-elf/4.1.1/../../../../arm-elf/lib/thumb/interwork\libc.a(vfprintf.o)
isnan                                             c:/asctec_arm_sdk/winarm/bin/../lib/gcc/arm-elf/4.1.1/../../../../arm-elf/lib/thumb/interwork\libc.a(s_isnan.o)
                                                  c:/asctec_arm_sdk/winarm/bin/../lib/gcc/arm-elf/4.1.1/../../../../arm-elf/lib/thumb/interwork\libm.a(w_sqrt.o)
                                                  c:/asctec_arm_sdk/winarm/bin/../lib/gcc/arm-elf/4.1.1/../../../../arm-elf/lib/thumb/interwork\libm.a(w_pow.o)
                                                  c:/asctec_arm_sdk/winarm/bin/../lib/gcc/arm-elf/4.1.1/../../../../arm-elf/lib/thumb/interwork\libm.a(w_atan2.o)
                                                  c:/asctec_arm_sdk/winarm/bin/../lib/gcc/arm-elf/4.1.1/../../../../arm-elf/lib/thumb/interwork\libc.a(vfprintf.o)
isnanf                                            c:/asctec_arm_sdk/winarm/bin/../lib/gcc/arm-elf/4.1.1/../../../../arm-elf/lib/thumb/interwork\libm.a(sf_isnan.o)
                                                  c:/asctec_arm_sdk/winarm/bin/../lib/gcc/arm-elf/4.1.1/../../../../arm-elf/lib/thumb/interwork\libm.a(wf_pow.o)
                                                  c:/asctec_arm_sdk/winarm/bin/../lib/gcc/arm-elf/4.1.1/../../../../arm-elf/lib/thumb/interwork\libm.a(wf_fmod.o)
jetiActivateValue                                 jetiTelemetry.o
jetiAlarm                                         jetiTelemetry.o
                                                  LL_HL_comm.o
jetiAlarmType                                     jetiTelemetry.o
                                                  LL_HL_comm.o
jetiCheckForKeyChange                             jetiTelemetry.o
                                                  sdk_telemetry.o
jetiDeactivateValue                               jetiTelemetry.o
jetiDisplayText                                   jetiTelemetry.o
                                                  LL_HL_comm.o
jetiInitValue                                     jetiTelemetry.o
                                                  sdk_telemetry.o
jetiKey                                           jetiTelemetry.o
jetiKeyChanged                                    jetiTelemetry.o
jetiName                                          jetiTelemetry.o
                                                  LL_HL_comm.o
jetiSetAlarm                                      jetiTelemetry.o
                                                  sdk_telemetry.o
jetiSetDecimalPoint                               jetiTelemetry.o
                                                  sdk_telemetry.o
jetiSetDeviceName                                 jetiTelemetry.o
                                                  sdk_telemetry.o
jetiSetKeyChanged                                 jetiTelemetry.o
                                                  LL_HL_comm.o
jetiSetTextDisplay                                jetiTelemetry.o
                                                  sdk_telemetry.o
jetiSetValue14B                                   jetiTelemetry.o
                                                  sdk_telemetry.o
jetiSetValue22B                                   jetiTelemetry.o
                                                  sdk_telemetry.o
jetiSetValue30B                                   jetiTelemetry.o
jetiSetValue6B                                    jetiTelemetry.o
                                                  sdk_telemetry.o
jetiSetValueDate                                  jetiTelemetry.o
jetiSetValueTime                                  jetiTelemetry.o
jetiTriggerTextSync                               jetiTelemetry.o
                                                  LL_HL_comm.o
jetiValues                                        jetiTelemetry.o
                                                  LL_HL_comm.o
kF                                                lab.o
kM                                                lab.o
l                                                 lab.o
lab                                               lab.o
                                                  sdk.o
lab2                                              lab.o
lastI2c1Error                                     i2c1.o
localeconv                                        c:/asctec_arm_sdk/winarm/bin/../lib/gcc/arm-elf/4.1.1/../../../../arm-elf/lib/thumb/interwork\libc.a(locale.o)
                                                  c:/asctec_arm_sdk/winarm/bin/../lib/gcc/arm-elf/4.1.1/../../../../arm-elf/lib/thumb/interwork\libc.a(vfprintf.o)
lpc_aci_ReadParafromFlash                         lpc_aci_eeprom.o
                                                  main.o
lpc_aci_SavePara                                  lpc_aci_eeprom.o
                                                  pelican_ptu.o
lpc_aci_WriteParatoFlash                          lpc_aci_eeprom.o
                                                  pelican_ptu.o
lpc_aci_init                                      lpc_aci_eeprom.o
                                                  main.o
main                                              main.o
                                                  Common_WinARM/src/Startup.o
mainloop                                          main.o
mainloop_cnt                                      main.o
mainloop_overflows                                main.o
mainloop_trigger                                  main.o
make_identity                                     Utilites.o
mass                                              lab.o
matherr                                           c:/asctec_arm_sdk/winarm/bin/../lib/gcc/arm-elf/4.1.1/../../../../arm-elf/lib/thumb/interwork\libm.a(s_matherr.o)
                                                  c:/asctec_arm_sdk/winarm/bin/../lib/gcc/arm-elf/4.1.1/../../../../arm-elf/lib/thumb/interwork\libm.a(wf_pow.o)
                                                  c:/asctec_arm_sdk/winarm/bin/../lib/gcc/arm-elf/4.1.1/../../../../arm-elf/lib/thumb/interwork\libm.a(wf_fmod.o)
                                                  c:/asctec_arm_sdk/winarm/bin/../lib/gcc/arm-elf/4.1.1/../../../../arm-elf/lib/thumb/interwork\libm.a(w_sqrt.o)
                                                  c:/asctec_arm_sdk/winarm/bin/../lib/gcc/arm-elf/4.1.1/../../../../arm-elf/lib/thumb/interwork\libm.a(w_pow.o)
                                                  c:/asctec_arm_sdk/winarm/bin/../lib/gcc/arm-elf/4.1.1/../../../../arm-elf/lib/thumb/interwork\libm.a(w_atan2.o)
matrix_add                                        Utilites.o
matrix_multiply                                   Utilites.o
                                                  lab.o
matrix_scalar_mult                                Utilites.o
matrix_transpose                                  Utilites.o
memchr                                            c:/asctec_arm_sdk/winarm/bin/../lib/gcc/arm-elf/4.1.1/../../../../arm-elf/lib/thumb/interwork\libc.a(memchr.o)
                                                  c:/asctec_arm_sdk/winarm/bin/../lib/gcc/arm-elf/4.1.1/../../../../arm-elf/lib/thumb/interwork\libc.a(fvwrite.o)
                                                  c:/asctec_arm_sdk/winarm/bin/../lib/gcc/arm-elf/4.1.1/../../../../arm-elf/lib/thumb/interwork\libc.a(vfprintf.o)
memcpy                                            c:/asctec_arm_sdk/winarm/bin/../lib/gcc/arm-elf/4.1.1/../../../../arm-elf/lib/thumb/interwork\libc.a(memcpy.o)
                                                  ./\libublox.a(ublox.o)
                                                  c:/asctec_arm_sdk/winarm/bin/../lib/gcc/arm-elf/4.1.1/../../../../arm-elf/lib/thumb/interwork\libc.a(mprec.o)
                                                  c:/asctec_arm_sdk/winarm/bin/../lib/gcc/arm-elf/4.1.1/../../../../arm-elf/lib/thumb/interwork\libc.a(dtoa.o)
                                                  jetiTelemetry.o
                                                  buildInfoSetup.o
                                                  asctecCommIntfOnboard.o
                                                  lpc_aci_eeprom.o
                                                  LL_HL_comm.o
memmove                                           c:/asctec_arm_sdk/winarm/bin/../lib/gcc/arm-elf/4.1.1/../../../../arm-elf/lib/thumb/interwork\libc.a(memmove.o)
                                                  c:/asctec_arm_sdk/winarm/bin/../lib/gcc/arm-elf/4.1.1/../../../../arm-elf/lib/thumb/interwork\libc.a(reallocr.o)
                                                  c:/asctec_arm_sdk/winarm/bin/../lib/gcc/arm-elf/4.1.1/../../../../arm-elf/lib/thumb/interwork\libc.a(fvwrite.o)
memset                                            c:/asctec_arm_sdk/winarm/bin/../lib/gcc/arm-elf/4.1.1/../../../../arm-elf/lib/thumb/interwork\libc.a(memset.o)
                                                  c:/asctec_arm_sdk/winarm/bin/../lib/gcc/arm-elf/4.1.1/../../../../arm-elf/lib/thumb/interwork\libc.a(callocr.o)
                                                  c:/asctec_arm_sdk/winarm/bin/../lib/gcc/arm-elf/4.1.1/../../../../arm-elf/lib/thumb/interwork\libc.a(findfp.o)
                                                  c:/asctec_arm_sdk/winarm/bin/../lib/gcc/arm-elf/4.1.1/../../../../arm-elf/lib/thumb/interwork\libc.a(vfprintf.o)
omega_cmd                                         lab.o
omega_cmd2                                        lab.o
packets                                           uart.o
peripheralClockFrequency                          system.o
                                                  uart.o
pitch_desired                                     lab.o
pll_feed                                          system.o
pll_init                                          system.o
pollMessageRate                                   ./\libublox.a(ublox.o)
pow                                               c:/asctec_arm_sdk/winarm/bin/../lib/gcc/arm-elf/4.1.1/../../../../arm-elf/lib/thumb/interwork\libm.a(w_pow.o)
                                                  Utilites.o
powf                                              c:/asctec_arm_sdk/winarm/bin/../lib/gcc/arm-elf/4.1.1/../../../../arm-elf/lib/thumb/interwork\libm.a(wf_pow.o)
                                                  Utilites.o
processorClockFrequency                           system.o
ringbuffer                                        uart.o
                                                  main.o
ringbuffer1                                       uart.o
rint                                              c:/asctec_arm_sdk/winarm/bin/../lib/gcc/arm-elf/4.1.1/../../../../arm-elf/lib/thumb/interwork\libm.a(s_rint.o)
                                                  c:/asctec_arm_sdk/winarm/bin/../lib/gcc/arm-elf/4.1.1/../../../../arm-elf/lib/thumb/interwork\libm.a(wf_pow.o)
                                                  c:/asctec_arm_sdk/winarm/bin/../lib/gcc/arm-elf/4.1.1/../../../../arm-elf/lib/thumb/interwork\libm.a(w_pow.o)
roll_desired                                      lab.o
satInfo                                           ./\libublox.a(ublox.o)
scalbn                                            c:/asctec_arm_sdk/winarm/bin/../lib/gcc/arm-elf/4.1.1/../../../../arm-elf/lib/thumb/interwork\libm.a(s_scalbn.o)
                                                  c:/asctec_arm_sdk/winarm/bin/../lib/gcc/arm-elf/4.1.1/../../../../arm-elf/lib/thumb/interwork\libm.a(k_rem_pio2.o)
                                                  c:/asctec_arm_sdk/winarm/bin/../lib/gcc/arm-elf/4.1.1/../../../../arm-elf/lib/thumb/interwork\libm.a(e_pow.o)
scalbnf                                           c:/asctec_arm_sdk/winarm/bin/../lib/gcc/arm-elf/4.1.1/../../../../arm-elf/lib/thumb/interwork\libm.a(sf_scalbn.o)
                                                  c:/asctec_arm_sdk/winarm/bin/../lib/gcc/arm-elf/4.1.1/../../../../arm-elf/lib/thumb/interwork\libm.a(ef_pow.o)
send_buffer                                       uart.o
setMessageRate                                    ./\libublox.a(ublox.o)
setlocale                                         c:/asctec_arm_sdk/winarm/bin/../lib/gcc/arm-elf/4.1.1/../../../../arm-elf/lib/thumb/interwork\libc.a(locale.o)
sin                                               c:/asctec_arm_sdk/winarm/bin/../lib/gcc/arm-elf/4.1.1/../../../../arm-elf/lib/thumb/interwork\libm.a(s_sin.o)
                                                  ./\libdeclination.a(declination.o)
sprintf                                           c:/asctec_arm_sdk/winarm/bin/../lib/gcc/arm-elf/4.1.1/../../../../arm-elf/lib/thumb/interwork\libc.a(sprintf.o)
                                                  sdk_telemetry.o
sqrt                                              c:/asctec_arm_sdk/winarm/bin/../lib/gcc/arm-elf/4.1.1/../../../../arm-elf/lib/thumb/interwork\libm.a(w_sqrt.o)
                                                  ./\libdeclination.a(declination.o)
                                                  lab.o
startstring                                       uart.o
stopstring                                        uart.o
strcmp                                            c:/asctec_arm_sdk/winarm/bin/../lib/gcc/arm-elf/4.1.1/../../../../arm-elf/lib/thumb/interwork\libc.a(strcmp.o)
                                                  c:/asctec_arm_sdk/winarm/bin/../lib/gcc/arm-elf/4.1.1/../../../../arm-elf/lib/thumb/interwork\libc.a(locale.o)
                                                  c:/asctec_arm_sdk/winarm/bin/../lib/gcc/arm-elf/4.1.1/../../../../arm-elf/lib/thumb/interwork\libc.a(wctomb_r.o)
strcpy                                            c:/asctec_arm_sdk/winarm/bin/../lib/gcc/arm-elf/4.1.1/../../../../arm-elf/lib/thumb/interwork\libc.a(strcpy.o)
                                                  asctecCommIntfOnboard.o
strlen                                            c:/asctec_arm_sdk/winarm/bin/../lib/gcc/arm-elf/4.1.1/../../../../arm-elf/lib/thumb/interwork\libc.a(strlen.o)
                                                  c:/asctec_arm_sdk/winarm/bin/../lib/gcc/arm-elf/4.1.1/../../../../arm-elf/lib/thumb/interwork\libc.a(wctomb_r.o)
                                                  c:/asctec_arm_sdk/winarm/bin/../lib/gcc/arm-elf/4.1.1/../../../../arm-elf/lib/thumb/interwork\libc.a(vfprintf.o)
                                                  asctecCommIntfOnboard.o
timer0ISR                                         main.o
                                                  system.o
transmission1_running                             uart.o
transmission_running                              uart.o
                                                  main.o
transmitBuildInfoTrigger                          LL_HL_comm.o
                                                  main.o
trigger_cnt                                       main.o
trigger_transmission                              uart.o
                                                  main.o
tx_buff                                           uart.o
u                                                 lab.o
                                                  sdk.o
uBloxHandleMessage                                ./\libublox.a(ublox.o)
uBloxReceiveEngine                                ./\libublox.a(ublox.o)
                                                  main.o
uBloxReceiveHandler                               ./\libublox.a(ublox.o)
                                                  uart.o
uBloxResetConfiguration                           ./\libublox.a(ublox.o)
uBloxSendMessage                                  ./\libublox.a(ublox.o)
uart0ISR                                          uart.o
                                                  system.o
uart1ISR                                          uart.o
                                                  system.o
uart_cnt                                          uart.o
                                                  main.o
ubloxVersion                                      ./\libublox.a(ublox.o)
uninstall_irq                                     Common_WinARM/src/irq.o
urAckClass                                        ./\libublox.a(ublox.o)
urAckId                                           ./\libublox.a(ublox.o)
urAckReceived                                     ./\libublox.a(ublox.o)
urCfgIdList                                       ./\libublox.a(ublox.o)
urConfigCnt                                       ./\libublox.a(ublox.o)
urConfigMessageReceived                           ./\libublox.a(ublox.o)
urMsgCnt                                          ./\libublox.a(ublox.o)
urRecData                                         ./\libublox.a(ublox.o)
urTimeCnt                                         ./\libublox.a(ublox.o)
urVersionCheck                                    ./\libublox.a(ublox.o)
vector_add                                        Utilites.o
vector_copy                                       Utilites.o
vector_multiply                                   Utilites.o
vector_scalar_mult                                Utilites.o
vfprintf                                          c:/asctec_arm_sdk/winarm/bin/../lib/gcc/arm-elf/4.1.1/../../../../arm-elf/lib/thumb/interwork\libc.a(vfprintf.o)
wcrtomb                                           c:/asctec_arm_sdk/winarm/bin/../lib/gcc/arm-elf/4.1.1/../../../../arm-elf/lib/thumb/interwork\libc.a(wcrtomb.o)
wcsrtombs                                         c:/asctec_arm_sdk/winarm/bin/../lib/gcc/arm-elf/4.1.1/../../../../arm-elf/lib/thumb/interwork\libc.a(wcsrtombs.o)
wpCtrlAckTrigger                                  LL_HL_comm.o
                                                  sdk.o
wpCtrlDistToWp                                    LL_HL_comm.o
                                                  sdk_telemetry.o
wpCtrlNavStatus                                   LL_HL_comm.o
                                                  sdk.o
wpCtrlWpCmd                                       LL_HL_comm.o
                                                  sdk.o
wpCtrlWpCmdUpdated                                LL_HL_comm.o
                                                  sdk.o
wpExampleActive                                   sdk.o
                                                  sdk_telemetry.o
wpExampleWpNr                                     sdk.o
                                                  sdk_telemetry.o
wpToLL                                            sdk.o
                                                  LL_HL_comm.o
x_nom                                             lab.o
xy2latlon                                         gpsmath.o
                                                  sdk.o
yaw_desired                                       lab.o
z                                                 lab.o
